Archive member included to satisfy reference by file (symbol)

C:/devkitPro/devkitARM/bin/../lib/gcc/arm-none-eabi/15.2.0/thumb\libgcc.a(_aeabi_ldivmod.o)
                              bn_hw_text.o (__aeabi_ldivmod)
C:/devkitPro/devkitARM/bin/../lib/gcc/arm-none-eabi/15.2.0/thumb\libgcc.a(_aeabi_uldivmod.o)
                              bn_hw_text.o (__aeabi_uldivmod)
C:/devkitPro/devkitARM/bin/../lib/gcc/arm-none-eabi/15.2.0/thumb\libgcc.a(_sync_none.o)
                              (__sync_synchronize_none)
C:/devkitPro/devkitARM/bin/../lib/gcc/arm-none-eabi/15.2.0/thumb\libgcc.a(_udivmoddi4.o)
                              C:/devkitPro/devkitARM/bin/../lib/gcc/arm-none-eabi/15.2.0/thumb\libgcc.a(_aeabi_ldivmod.o) (__udivmoddi4)

Discarded input sections

 .text          0x00000000        0x0 C:/devkitPro/devkitARM/bin/../lib/gcc/arm-none-eabi/15.2.0/../../../../arm-none-eabi/lib/thumb/gba_crt0.o
 .data          0x00000000        0x0 C:/devkitPro/devkitARM/bin/../lib/gcc/arm-none-eabi/15.2.0/../../../../arm-none-eabi/lib/thumb/gba_crt0.o
 .bss           0x00000000        0x0 C:/devkitPro/devkitARM/bin/../lib/gcc/arm-none-eabi/15.2.0/../../../../arm-none-eabi/lib/thumb/gba_crt0.o
 .text          0x00000000        0x0 C:/devkitPro/devkitARM/bin/../lib/gcc/arm-none-eabi/15.2.0/thumb/crti.o
 .data          0x00000000        0x0 C:/devkitPro/devkitARM/bin/../lib/gcc/arm-none-eabi/15.2.0/thumb/crti.o
 .bss           0x00000000        0x0 C:/devkitPro/devkitARM/bin/../lib/gcc/arm-none-eabi/15.2.0/thumb/crti.o
 .text          0x00000000        0x0 C:/devkitPro/devkitARM/bin/../lib/gcc/arm-none-eabi/15.2.0/thumb/crtbegin.o
 .data          0x00000000        0x0 C:/devkitPro/devkitARM/bin/../lib/gcc/arm-none-eabi/15.2.0/thumb/crtbegin.o
 .bss           0x00000000        0x0 C:/devkitPro/devkitARM/bin/../lib/gcc/arm-none-eabi/15.2.0/thumb/crtbegin.o
 .rodata.all_implied_fbits
                0x00000000       0x24 C:/devkitPro/devkitARM/bin/../lib/gcc/arm-none-eabi/15.2.0/thumb/crtbegin.o
 .data.__dso_handle
                0x00000000        0x4 C:/devkitPro/devkitARM/bin/../lib/gcc/arm-none-eabi/15.2.0/thumb/crtbegin.o
 .text          0x00000000        0x0 bn_audio_soundbank.bin.o
 .data          0x00000000        0x0 bn_audio_soundbank.bin.o
 .bss           0x00000000        0x0 bn_audio_soundbank.bin.o
 .text          0x00000000        0x0 arena_bn_gfx.o
 .data          0x00000000        0x0 arena_bn_gfx.o
 .bss           0x00000000        0x0 arena_bn_gfx.o
 .text          0x00000000        0x0 dialog_font_bn_gfx.o
 .data          0x00000000        0x0 dialog_font_bn_gfx.o
 .bss           0x00000000        0x0 dialog_font_bn_gfx.o
 .text          0x00000000        0x0 gerione_bn_gfx.o
 .data          0x00000000        0x0 gerione_bn_gfx.o
 .bss           0x00000000        0x0 gerione_bn_gfx.o
 .text          0x00000000        0x0 player_bn_gfx.o
 .data          0x00000000        0x0 player_bn_gfx.o
 .bss           0x00000000        0x0 player_bn_gfx.o
 .group         0x00000000        0xc main.o
 .group         0x00000000        0xc main.o
 .group         0x00000000        0xc main.o
 .group         0x00000000        0xc main.o
 .group         0x00000000        0xc main.o
 .group         0x00000000        0xc main.o
 .text          0x00000000        0x0 main.o
 .data          0x00000000        0x0 main.o
 .bss           0x00000000        0x0 main.o
 .group         0x00000000        0xc bn_affine_bg_animate_actions.o
 .group         0x00000000        0xc bn_affine_bg_animate_actions.o
 .group         0x00000000        0xc bn_affine_bg_animate_actions.o
 .group         0x00000000        0xc bn_affine_bg_animate_actions.o
 .group         0x00000000        0xc bn_affine_bg_animate_actions.o
 .group         0x00000000        0xc bn_affine_bg_animate_actions.o
 .group         0x00000000        0xc bn_affine_bg_animate_actions.o
 .group         0x00000000        0xc bn_affine_bg_animate_actions.o
 .group         0x00000000        0xc bn_affine_bg_animate_actions.o
 .text          0x00000000        0x0 bn_affine_bg_animate_actions.o
 .data          0x00000000        0x0 bn_affine_bg_animate_actions.o
 .bss           0x00000000        0x0 bn_affine_bg_animate_actions.o
 .text._ZN2bn13ostringstream11append_argsIiJA4_ciEEEvRKT_DpRKT0_.isra.0
                0x00000000       0x24 bn_affine_bg_animate_actions.o
 .text._ZN2bn25iaffine_bg_animate_action9_set_refsERNS_13affine_bg_ptrERNS_18affine_bg_map_itemERNS_7ivectorItEE
                0x00000000        0x4 bn_affine_bg_animate_actions.o
 .text._ZN2bn25iaffine_bg_animate_action7_assignERKS0_
                0x00000000       0x10 bn_affine_bg_animate_actions.o
 .text._ZN2bn32iaffine_bg_cached_animate_action9_set_refsERNS_13affine_bg_ptrERNS_7ivectorINS_17affine_bg_map_ptrEEE
                0x00000000        0x4 bn_affine_bg_animate_actions.o
 .text._ZN2bn32iaffine_bg_cached_animate_action7_assignERKS0_
                0x00000000       0x10 bn_affine_bg_animate_actions.o
 .text._ZN3_bn6assert9show_argsIJA16_ciA4_ciEEEvPKcS5_S5_iDpRKT_
                0x00000000       0x58 bn_affine_bg_animate_actions.o
 .text._ZN3_bn6assert9show_argsIJA23_ciA4_ciEEEvPKcS5_S5_iDpRKT_
                0x00000000       0x58 bn_affine_bg_animate_actions.o
 .text._ZN3_bn6assert9show_argsIA15_cEEvPKcS4_S4_iRKT_
                0x00000000       0x48 bn_affine_bg_animate_actions.o
 .rodata._ZN2bn25iaffine_bg_animate_action6updateEv.str1.4
                0x00000000       0x90 bn_affine_bg_animate_actions.o
 .text._ZN2bn25iaffine_bg_animate_action6updateEv
                0x00000000       0xb8 bn_affine_bg_animate_actions.o
 .text._ZN2bn32iaffine_bg_cached_animate_action6updateEv
                0x00000000       0xa4 bn_affine_bg_animate_actions.o
 .text._ZN3_bn6assert9show_argsIA23_ciEEvPKcS4_S4_iRKT_RKT0_
                0x00000000       0x54 bn_affine_bg_animate_actions.o
 .rodata._ZN2bn25iaffine_bg_animate_action16set_wait_updatesEi.str1.4
                0x00000000       0x98 bn_affine_bg_animate_actions.o
 .text._ZN2bn25iaffine_bg_animate_action16set_wait_updatesEi
                0x00000000       0x68 bn_affine_bg_animate_actions.o
 .text._ZN2bn32iaffine_bg_cached_animate_action16set_wait_updatesEi
                0x00000000       0x68 bn_affine_bg_animate_actions.o
 .rodata._ZN2bn25iaffine_bg_animate_action19_assign_map_indexesERKNS_4spanIKtEE.str1.4
                0x00000000       0x9f bn_affine_bg_animate_actions.o
 .text._ZN2bn25iaffine_bg_animate_action19_assign_map_indexesERKNS_4spanIKtEE
                0x00000000       0x84 bn_affine_bg_animate_actions.o
 .text._ZN3_bn6assert9show_argsIJA28_ciA4_ciEEEvPKcS5_S5_iDpRKT_
                0x00000000       0x58 bn_affine_bg_animate_actions.o
 .rodata._ZN2bn32iaffine_bg_cached_animate_action19_assign_map_indexesERKNS_18affine_bg_map_itemERKNS_4spanIKtEE.str1.4
                0x00000000       0x46 bn_affine_bg_animate_actions.o
 .text._ZN2bn32iaffine_bg_cached_animate_action19_assign_map_indexesERKNS_18affine_bg_map_itemERKNS_4spanIKtEE
                0x00000000      0x104 bn_affine_bg_animate_actions.o
 .text._ZN3_bn6assert9show_argsIJA21_ciA4_ciEEEvPKcS5_S5_iDpRKT_
                0x00000000       0x58 bn_affine_bg_animate_actions.o
 .rodata._ZN2bn32iaffine_bg_cached_animate_action12_assign_mapsENS_4spanINS_17affine_bg_map_ptrEEE.str1.4
                0x00000000       0x5d bn_affine_bg_animate_actions.o
 .text._ZN2bn32iaffine_bg_cached_animate_action12_assign_mapsENS_4spanINS_17affine_bg_map_ptrEEE
                0x00000000       0x9c bn_affine_bg_animate_actions.o
 .text._ZN3_bn6assert9show_argsIJA19_ciA4_ciEEEvPKcS5_S5_iDpRKT_
                0x00000000       0x58 bn_affine_bg_animate_actions.o
 .rodata._ZN2bn32iaffine_bg_cached_animate_actionaSERKS0_.str1.4
                0x00000000       0x77 bn_affine_bg_animate_actions.o
 .text._ZN2bn32iaffine_bg_cached_animate_actionaSERKS0_
                0x00000000       0xf8 bn_affine_bg_animate_actions.o
 .text._ZN2bn32iaffine_bg_cached_animate_actionaSEOS0_
                0x00000000      0x114 bn_affine_bg_animate_actions.o
 .rodata._ZN2bn25iaffine_bg_animate_actionaSEOS0_.str1.4
                0x00000000       0x4f bn_affine_bg_animate_actions.o
 .text._ZN2bn25iaffine_bg_animate_actionaSEOS0_
                0x00000000       0xcc bn_affine_bg_animate_actions.o
 .text._ZN2bn32iaffine_bg_cached_animate_action12_assign_mapsERKNS_7ivectorINS_17affine_bg_map_ptrEEE
                0x00000000       0x8c bn_affine_bg_animate_actions.o
 .text._ZN2bn32iaffine_bg_cached_animate_action12_assign_mapsEONS_7ivectorINS_17affine_bg_map_ptrEEE
                0x00000000       0xa0 bn_affine_bg_animate_actions.o
 .text._ZN2bn25iaffine_bg_animate_action19_assign_map_indexesERKNS_7ivectorItEE
                0x00000000       0x60 bn_affine_bg_animate_actions.o
 .text._ZN2bn25iaffine_bg_animate_actionaSERKS0_
                0x00000000       0xcc bn_affine_bg_animate_actions.o
 .group         0x00000000        0xc bn_audio_manager.bn_noflto.o
 .group         0x00000000        0xc bn_audio_manager.bn_noflto.o
 .group         0x00000000        0xc bn_audio_manager.bn_noflto.o
 .group         0x00000000        0xc bn_audio_manager.bn_noflto.o
 .group         0x00000000        0xc bn_audio_manager.bn_noflto.o
 .group         0x00000000        0xc bn_audio_manager.bn_noflto.o
 .group         0x00000000        0xc bn_audio_manager.bn_noflto.o
 .group         0x00000000        0xc bn_audio_manager.bn_noflto.o
 .group         0x00000000        0xc bn_audio_manager.bn_noflto.o
 .group         0x00000000        0xc bn_audio_manager.bn_noflto.o
 .group         0x00000000        0xc bn_audio_manager.bn_noflto.o
 .group         0x00000000        0xc bn_audio_manager.bn_noflto.o
 .group         0x00000000        0xc bn_audio_manager.bn_noflto.o
 .group         0x00000000        0xc bn_audio_manager.bn_noflto.o
 .group         0x00000000        0xc bn_audio_manager.bn_noflto.o
 .group         0x00000000        0xc bn_audio_manager.bn_noflto.o
 .group         0x00000000        0xc bn_audio_manager.bn_noflto.o
 .group         0x00000000        0xc bn_audio_manager.bn_noflto.o
 .group         0x00000000        0xc bn_audio_manager.bn_noflto.o
 .group         0x00000000        0xc bn_audio_manager.bn_noflto.o
 .group         0x00000000        0xc bn_audio_manager.bn_noflto.o
 .group         0x00000000        0xc bn_audio_manager.bn_noflto.o
 .group         0x00000000        0xc bn_audio_manager.bn_noflto.o
 .group         0x00000000        0xc bn_audio_manager.bn_noflto.o
 .group         0x00000000        0xc bn_audio_manager.bn_noflto.o
 .text          0x00000000        0x0 bn_audio_manager.bn_noflto.o
 .data          0x00000000        0x0 bn_audio_manager.bn_noflto.o
 .bss           0x00000000        0x0 bn_audio_manager.bn_noflto.o
 .text._ZN2bn5audio22available_mixing_ratesEv
                0x00000000       0x10 bn_audio_manager.bn_noflto.o
 .text._ZN2bn5audio11mixing_rateEv
                0x00000000       0x10 bn_audio_manager.bn_noflto.o
 .text._ZN2bn5audio16update_on_vblankEv
                0x00000000       0x10 bn_audio_manager.bn_noflto.o
 .text._ZN2bn5audio20set_update_on_vblankEb
                0x00000000       0x10 bn_audio_manager.bn_noflto.o
 .text._ZN2bn5audio21event_handler_enabledEv
                0x00000000       0x10 bn_audio_manager.bn_noflto.o
 .text._ZN2bn5audio25set_event_handler_enabledEb
                0x00000000       0x10 bn_audio_manager.bn_noflto.o
 .text._ZN2bn5music7playingEv
                0x00000000       0x10 bn_audio_manager.bn_noflto.o
 .text._ZN2bn5music12playing_itemEv
                0x00000000       0x30 bn_audio_manager.bn_noflto.o
 .text._ZN2bn5music6pausedEv
                0x00000000       0x10 bn_audio_manager.bn_noflto.o
 .text._ZN2bn5sound13master_volumeEv
                0x00000000       0x10 bn_audio_manager.bn_noflto.o
 .text._ZN2bn6jingle7playingEv
                0x00000000       0x10 bn_audio_manager.bn_noflto.o
 .text._ZN2bn6jingle12playing_itemEv
                0x00000000       0x30 bn_audio_manager.bn_noflto.o
 .text._ZN2bn6jingle6pausedEv
                0x00000000       0x10 bn_audio_manager.bn_noflto.o
 .text._ZN2bn9dmg_music7playingEv
                0x00000000       0x14 bn_audio_manager.bn_noflto.o
 .text._ZN2bn9dmg_music12playing_itemEv
                0x00000000       0x28 bn_audio_manager.bn_noflto.o
 .text._ZN2bn9dmg_music6pausedEv
                0x00000000       0x10 bn_audio_manager.bn_noflto.o
 .text._ZN2bn9dmg_music13master_volumeEv
                0x00000000       0x10 bn_audio_manager.bn_noflto.o
 .text._ZN2bn13audio_manager6enableEv
                0x00000000       0x10 bn_audio_manager.bn_noflto.o
 .text._ZN2bn13audio_manager13music_playingEv
                0x00000000       0x10 bn_audio_manager.bn_noflto.o
 .text._ZN2bn13audio_manager18playing_music_itemEv
                0x00000000       0x30 bn_audio_manager.bn_noflto.o
 .text._ZN2bn13audio_manager12music_pausedEv
                0x00000000       0x10 bn_audio_manager.bn_noflto.o
 .text._ZN2bn13audio_manager14jingle_playingEv
                0x00000000       0x10 bn_audio_manager.bn_noflto.o
 .text._ZN2bn13audio_manager19playing_jingle_itemEv
                0x00000000       0x30 bn_audio_manager.bn_noflto.o
 .text._ZN2bn13audio_manager13jingle_pausedEv
                0x00000000       0x10 bn_audio_manager.bn_noflto.o
 .text._ZN2bn13audio_manager17dmg_music_playingEv
                0x00000000       0x14 bn_audio_manager.bn_noflto.o
 .text._ZN2bn13audio_manager22playing_dmg_music_itemEv
                0x00000000       0x28 bn_audio_manager.bn_noflto.o
 .text._ZN2bn13audio_manager16dmg_music_pausedEv
                0x00000000       0x10 bn_audio_manager.bn_noflto.o
 .text._ZN2bn13audio_manager23dmg_music_master_volumeEv
                0x00000000       0x10 bn_audio_manager.bn_noflto.o
 .text._ZNK2bn12sound_handle6activeEv
                0x00000000       0x14 bn_audio_manager.bn_noflto.o
 .text._ZN2bn13audio_manager19sound_master_volumeEv
                0x00000000       0x10 bn_audio_manager.bn_noflto.o
 .text._ZN2bn13audio_manager22available_mixing_ratesEv
                0x00000000       0x10 bn_audio_manager.bn_noflto.o
 .text._ZN2bn13audio_manager11mixing_rateEv
                0x00000000       0x10 bn_audio_manager.bn_noflto.o
 .text._ZN2bn13audio_manager16update_on_vblankEv
                0x00000000       0x10 bn_audio_manager.bn_noflto.o
 .text._ZN2bn13audio_manager20set_update_on_vblankEb
                0x00000000       0x10 bn_audio_manager.bn_noflto.o
 .text._ZN2bn13audio_manager21event_handler_enabledEv
                0x00000000       0x10 bn_audio_manager.bn_noflto.o
 .text._ZN2bn13audio_manager25set_event_handler_enabledEb
                0x00000000       0x10 bn_audio_manager.bn_noflto.o
 .text._ZN3_bn6assert9show_argsIA19_ciEEvPKcS4_S4_iRKT_RKT0_
                0x00000000       0x54 bn_audio_manager.bn_noflto.o
 .text._ZN3_bn6assert9show_argsIA36_ciEEvPKcS4_S4_iRKT_RKT0_
                0x00000000       0x54 bn_audio_manager.bn_noflto.o
 .text._ZN2bn13audio_manager10play_musicENS_10music_itemENS_7fixed_tILi12EEEb
                0x00000000       0x88 bn_audio_manager.bn_noflto.o
 .rodata._ZN2bn13audio_manager10stop_musicEv.str1.4
                0x00000000        0xb bn_audio_manager.bn_noflto.o
 .text._ZN2bn13audio_manager10stop_musicEv
                0x00000000       0x5c bn_audio_manager.bn_noflto.o
 .rodata._ZN2bn13audio_manager11play_jingleENS_10music_itemENS_7fixed_tILi12EEE.str1.4
                0x00000000        0xc bn_audio_manager.bn_noflto.o
 .text._ZN2bn13audio_manager11play_jingleENS_10music_itemENS_7fixed_tILi12EEE
                0x00000000       0x70 bn_audio_manager.bn_noflto.o
 .rodata._ZN2bn13audio_manager11stop_jingleEv.str1.4
                0x00000000        0xc bn_audio_manager.bn_noflto.o
 .text._ZN2bn13audio_manager11stop_jingleEv
                0x00000000       0x5c bn_audio_manager.bn_noflto.o
 .rodata._ZN2bn13audio_manager14play_dmg_musicERKNS_14dmg_music_itemEib.str1.4
                0x00000000        0xf bn_audio_manager.bn_noflto.o
 .text._ZN2bn13audio_manager14play_dmg_musicERKNS_14dmg_music_itemEib
                0x00000000       0x94 bn_audio_manager.bn_noflto.o
 .rodata._ZN2bn13audio_manager14stop_dmg_musicEv.str1.4
                0x00000000        0xf bn_audio_manager.bn_noflto.o
 .text._ZN2bn13audio_manager14stop_dmg_musicEv
                0x00000000       0x60 bn_audio_manager.bn_noflto.o
 .rodata._ZN2bn13audio_manager27set_dmg_music_master_volumeENS_23dmg_music_master_volumeE.str1.4
                0x00000000       0x1c bn_audio_manager.bn_noflto.o
 .text._ZN2bn13audio_manager27set_dmg_music_master_volumeENS_23dmg_music_master_volumeE
                0x00000000       0x64 bn_audio_manager.bn_noflto.o
 .rodata._ZN2bn13audio_manager23set_sound_master_volumeENS_7fixed_tILi12EEE.str1.4
                0x00000000       0x18 bn_audio_manager.bn_noflto.o
 .text._ZN2bn13audio_manager23set_sound_master_volumeENS_7fixed_tILi12EEE
                0x00000000       0x64 bn_audio_manager.bn_noflto.o
 .rodata._ZN2bn13audio_manager15stop_all_soundsEv.str1.4
                0x00000000       0x10 bn_audio_manager.bn_noflto.o
 .text._ZN2bn13audio_manager15stop_all_soundsEv
                0x00000000       0x94 bn_audio_manager.bn_noflto.o
 .text._ZN2bn5sound8stop_allEv
                0x00000000        0xc bn_audio_manager.bn_noflto.o
 .rodata._ZN2bn13audio_manager10stop_soundEt.str1.4
                0x00000000        0xb bn_audio_manager.bn_noflto.o
 .text._ZN2bn13audio_manager10stop_soundEt
                0x00000000       0x60 bn_audio_manager.bn_noflto.o
 .rodata._ZN2bn13audio_manager13release_soundEt.str1.4
                0x00000000        0xe bn_audio_manager.bn_noflto.o
 .text._ZN2bn13audio_manager13release_soundEt
                0x00000000       0x60 bn_audio_manager.bn_noflto.o
 .text._ZN2bn5music4stopEv
                0x00000000       0x5c bn_audio_manager.bn_noflto.o
 .text._ZN2bn6jingle4stopEv
                0x00000000       0x5c bn_audio_manager.bn_noflto.o
 .text._ZN2bn9dmg_music4stopEv
                0x00000000       0x60 bn_audio_manager.bn_noflto.o
 .text._ZN2bn9dmg_music17set_master_volumeENS_23dmg_music_master_volumeE
                0x00000000       0x64 bn_audio_manager.bn_noflto.o
 .text._ZN2bn12sound_handle4stopEv
                0x00000000       0x64 bn_audio_manager.bn_noflto.o
 .text._ZN2bn12sound_handle7releaseEv
                0x00000000       0x64 bn_audio_manager.bn_noflto.o
 .text._ZN2bn6jingle4playENS_10music_itemE
                0x00000000       0x74 bn_audio_manager.bn_noflto.o
 .text._ZNK2bn10music_item11play_jingleEv
                0x00000000       0x74 bn_audio_manager.bn_noflto.o
 .text._ZN2bn5music4playENS_10music_itemE
                0x00000000       0x84 bn_audio_manager.bn_noflto.o
 .text._ZNK2bn10music_item4playEv
                0x00000000       0x84 bn_audio_manager.bn_noflto.o
 .text._ZN2bn9dmg_music4playERKNS_14dmg_music_itemE
                0x00000000       0x90 bn_audio_manager.bn_noflto.o
 .text._ZNK2bn14dmg_music_item4playEv
                0x00000000       0x90 bn_audio_manager.bn_noflto.o
 .rodata._ZNK2bn14dmg_music_item4playEib.str1.4
                0x00000000       0x36 bn_audio_manager.bn_noflto.o
 .text._ZNK2bn14dmg_music_item4playEib
                0x00000000       0xbc bn_audio_manager.bn_noflto.o
 .text._ZNK2bn14dmg_music_item4playEi
                0x00000000       0xb8 bn_audio_manager.bn_noflto.o
 .text._ZN2bn9dmg_music4playERKNS_14dmg_music_itemEi
                0x00000000       0xb8 bn_audio_manager.bn_noflto.o
 .text._ZN2bn9dmg_music4playERKNS_14dmg_music_itemEib
                0x00000000       0xb8 bn_audio_manager.bn_noflto.o
 .rodata._ZN2bn13audio_manager14music_positionEv.str1.4
                0x00000000       0x29 bn_audio_manager.bn_noflto.o
 .text._ZN2bn13audio_manager14music_positionEv
                0x00000000       0x44 bn_audio_manager.bn_noflto.o
 .rodata._ZN2bn13audio_manager18set_music_positionEi.str1.4
                0x00000000       0x13 bn_audio_manager.bn_noflto.o
 .text._ZN2bn13audio_manager18set_music_positionEi
                0x00000000       0x88 bn_audio_manager.bn_noflto.o
 .rodata._ZN2bn13audio_manager12music_volumeEv.str1.4
                0x00000000        0xd bn_audio_manager.bn_noflto.o
 .text._ZN2bn13audio_manager12music_volumeEv
                0x00000000       0x44 bn_audio_manager.bn_noflto.o
 .rodata._ZN2bn13audio_manager16set_music_volumeENS_7fixed_tILi12EEE.str1.4
                0x00000000       0x11 bn_audio_manager.bn_noflto.o
 .text._ZN2bn13audio_manager16set_music_volumeENS_7fixed_tILi12EEE
                0x00000000       0x84 bn_audio_manager.bn_noflto.o
 .rodata._ZN2bn13audio_manager11music_tempoEv.str1.4
                0x00000000        0xc bn_audio_manager.bn_noflto.o
 .text._ZN2bn13audio_manager11music_tempoEv
                0x00000000       0x44 bn_audio_manager.bn_noflto.o
 .rodata._ZN2bn13audio_manager15set_music_tempoENS_7fixed_tILi12EEE.str1.4
                0x00000000       0x10 bn_audio_manager.bn_noflto.o
 .text._ZN2bn13audio_manager15set_music_tempoENS_7fixed_tILi12EEE
                0x00000000       0x88 bn_audio_manager.bn_noflto.o
 .rodata._ZN2bn13audio_manager11music_pitchEv.str1.4
                0x00000000        0xc bn_audio_manager.bn_noflto.o
 .text._ZN2bn13audio_manager11music_pitchEv
                0x00000000       0x44 bn_audio_manager.bn_noflto.o
 .rodata._ZN2bn13audio_manager15set_music_pitchENS_7fixed_tILi12EEE.str1.4
                0x00000000       0x10 bn_audio_manager.bn_noflto.o
 .text._ZN2bn13audio_manager15set_music_pitchENS_7fixed_tILi12EEE
                0x00000000       0x84 bn_audio_manager.bn_noflto.o
 .text._ZN2bn5music8positionEv
                0x00000000       0x44 bn_audio_manager.bn_noflto.o
 .text._ZN2bn5music6volumeEv
                0x00000000       0x44 bn_audio_manager.bn_noflto.o
 .text._ZN2bn5music5tempoEv
                0x00000000       0x44 bn_audio_manager.bn_noflto.o
 .text._ZN2bn5music5pitchEv
                0x00000000       0x44 bn_audio_manager.bn_noflto.o
 .rodata._ZN2bn5music12set_positionEi.str1.4
                0x00000000       0x43 bn_audio_manager.bn_noflto.o
 .text._ZN2bn5music12set_positionEi
                0x00000000       0xb0 bn_audio_manager.bn_noflto.o
 .rodata._ZN2bn13audio_manager11pause_musicEv.str1.4
                0x00000000       0x24 bn_audio_manager.bn_noflto.o
 .text._ZN2bn13audio_manager11pause_musicEv
                0x00000000       0x9c bn_audio_manager.bn_noflto.o
 .text._ZN2bn5music5pauseEv
                0x00000000        0xc bn_audio_manager.bn_noflto.o
 .rodata._ZN2bn13audio_manager16resume_dmg_musicEv.str1.4
                0x00000000       0x2c bn_audio_manager.bn_noflto.o
 .text._ZN2bn13audio_manager16resume_dmg_musicEv
                0x00000000       0x78 bn_audio_manager.bn_noflto.o
 .text._ZN2bn9dmg_music6resumeEv
                0x00000000       0x78 bn_audio_manager.bn_noflto.o
 .rodata._ZN2bn13audio_manager12resume_musicEv.str1.4
                0x00000000       0x24 bn_audio_manager.bn_noflto.o
 .text._ZN2bn13audio_manager12resume_musicEv
                0x00000000       0x78 bn_audio_manager.bn_noflto.o
 .text._ZN2bn5music6resumeEv
                0x00000000       0x78 bn_audio_manager.bn_noflto.o
 .rodata._ZN2bn13audio_manager12pause_jingleEv.str1.4
                0x00000000       0x45 bn_audio_manager.bn_noflto.o
 .text._ZN2bn13audio_manager12pause_jingleEv
                0x00000000       0x9c bn_audio_manager.bn_noflto.o
 .text._ZN2bn6jingle5pauseEv
                0x00000000        0xc bn_audio_manager.bn_noflto.o
 .rodata._ZN2bn13audio_manager13jingle_volumeEv.str1.4
                0x00000000        0xe bn_audio_manager.bn_noflto.o
 .text._ZN2bn13audio_manager13jingle_volumeEv
                0x00000000       0x44 bn_audio_manager.bn_noflto.o
 .rodata._ZN2bn13audio_manager17set_jingle_volumeENS_7fixed_tILi12EEE.str1.4
                0x00000000       0x12 bn_audio_manager.bn_noflto.o
 .text._ZN2bn13audio_manager17set_jingle_volumeENS_7fixed_tILi12EEE
                0x00000000       0x88 bn_audio_manager.bn_noflto.o
 .rodata._ZN2bn13audio_manager9event_idsEv.str1.4
                0x00000000       0x26 bn_audio_manager.bn_noflto.o
 .text._ZN2bn13audio_manager9event_idsEv
                0x00000000       0x48 bn_audio_manager.bn_noflto.o
 .text._ZN2bn5audio9event_idsEv
                0x00000000       0x48 bn_audio_manager.bn_noflto.o
 .text._ZN2bn6jingle6volumeEv
                0x00000000       0x44 bn_audio_manager.bn_noflto.o
 .rodata._ZN2bn13audio_manager13resume_jingleEv.str1.4
                0x00000000       0x25 bn_audio_manager.bn_noflto.o
 .text._ZN2bn13audio_manager13resume_jingleEv
                0x00000000       0x78 bn_audio_manager.bn_noflto.o
 .text._ZN2bn6jingle6resumeEv
                0x00000000       0x78 bn_audio_manager.bn_noflto.o
 .text._ZN3_bn6assert9show_argsIA29_cEEvPKcS4_S4_iRKT_
                0x00000000       0x48 bn_audio_manager.bn_noflto.o
 .text._ZN2bn9dmg_music8positionEv
                0x00000000       0x44 bn_audio_manager.bn_noflto.o
 .rodata._ZN2bn13audio_manager22set_dmg_music_positionERKNS_18dmg_music_positionE.str1.4
                0x00000000       0x17 bn_audio_manager.bn_noflto.o
 .text._ZN2bn13audio_manager22set_dmg_music_positionERKNS_18dmg_music_positionE
                0x00000000       0xa8 bn_audio_manager.bn_noflto.o
 .text._ZN2bn9dmg_music12set_positionEii
                0x00000000       0x6c bn_audio_manager.bn_noflto.o
 .text._ZN2bn9dmg_music12set_positionERKNS_18dmg_music_positionE
                0x00000000        0xc bn_audio_manager.bn_noflto.o
 .rodata._ZN2bn13audio_manager21dmg_music_left_volumeEv.str1.4
                0x00000000       0x16 bn_audio_manager.bn_noflto.o
 .text._ZN2bn13audio_manager21dmg_music_left_volumeEv
                0x00000000       0x44 bn_audio_manager.bn_noflto.o
 .rodata._ZN2bn13audio_manager22dmg_music_right_volumeEv.str1.4
                0x00000000       0x17 bn_audio_manager.bn_noflto.o
 .text._ZN2bn13audio_manager22dmg_music_right_volumeEv
                0x00000000       0x44 bn_audio_manager.bn_noflto.o
 .rodata._ZN2bn13audio_manager20set_dmg_music_volumeENS_7fixed_tILi12EEES2_.str1.4
                0x00000000       0x15 bn_audio_manager.bn_noflto.o
 .text._ZN2bn13audio_manager20set_dmg_music_volumeENS_7fixed_tILi12EEES2_
                0x00000000       0xa4 bn_audio_manager.bn_noflto.o
 .text._ZN2bn13audio_manager25set_dmg_music_left_volumeENS_7fixed_tILi12EEE
                0x00000000       0x18 bn_audio_manager.bn_noflto.o
 .text._ZN2bn13audio_manager26set_dmg_music_right_volumeENS_7fixed_tILi12EEE
                0x00000000       0x1c bn_audio_manager.bn_noflto.o
 .text._ZN2bn13audio_manager18dmg_music_positionEv
                0x00000000       0x44 bn_audio_manager.bn_noflto.o
 .text._ZN2bn9dmg_music11left_volumeEv
                0x00000000       0x44 bn_audio_manager.bn_noflto.o
 .text._ZN2bn9dmg_music12right_volumeEv
                0x00000000       0x44 bn_audio_manager.bn_noflto.o
 .text._ZN3_bn6assert9show_argsIA28_cEEvPKcS4_S4_iRKT_
                0x00000000       0x48 bn_audio_manager.bn_noflto.o
 .rodata._ZN2bn13audio_manager15pause_dmg_musicEv.str1.4
                0x00000000       0x2c bn_audio_manager.bn_noflto.o
 .text._ZN2bn13audio_manager15pause_dmg_musicEv
                0x00000000       0x98 bn_audio_manager.bn_noflto.o
 .text._ZN2bn9dmg_music5pauseEv
                0x00000000        0xc bn_audio_manager.bn_noflto.o
 .text._ZN3_bn6assert9show_argsIA32_cEEvPKcS4_S4_iRKT_
                0x00000000       0x48 bn_audio_manager.bn_noflto.o
 .text._ZN3_bn6assert9show_argsIA22_ctEEvPKcS4_S4_iRKT_RKT0_
                0x00000000       0x54 bn_audio_manager.bn_noflto.o
 .rodata._ZN2bn13audio_manager10sound_itemEt.str1.4
                0x00000000       0x22 bn_audio_manager.bn_noflto.o
 .text._ZN2bn13audio_manager10sound_itemEt
                0x00000000       0x48 bn_audio_manager.bn_noflto.o
 .rodata._ZN2bn13audio_manager11sound_speedEt.str1.4
                0x00000000        0xc bn_audio_manager.bn_noflto.o
 .text._ZN2bn13audio_manager11sound_speedEt
                0x00000000       0x48 bn_audio_manager.bn_noflto.o
 .rodata._ZN2bn13audio_manager15set_sound_speedEtNS_7fixed_tILi12EEE.str1.4
                0x00000000       0x10 bn_audio_manager.bn_noflto.o
 .text._ZN2bn13audio_manager15set_sound_speedEtNS_7fixed_tILi12EEE
                0x00000000       0x94 bn_audio_manager.bn_noflto.o
 .rodata._ZN2bn13audio_manager13sound_panningEt.str1.4
                0x00000000        0xe bn_audio_manager.bn_noflto.o
 .text._ZN2bn13audio_manager13sound_panningEt
                0x00000000       0x48 bn_audio_manager.bn_noflto.o
 .rodata._ZN2bn13audio_manager17set_sound_panningEtNS_7fixed_tILi12EEE.str1.4
                0x00000000       0x12 bn_audio_manager.bn_noflto.o
 .text._ZN2bn13audio_manager17set_sound_panningEtNS_7fixed_tILi12EEE
                0x00000000       0x94 bn_audio_manager.bn_noflto.o
 .text._ZNK2bn12sound_handle4itemEv
                0x00000000       0x44 bn_audio_manager.bn_noflto.o
 .text._ZNK2bn12sound_handle5speedEv
                0x00000000       0x44 bn_audio_manager.bn_noflto.o
 .text._ZNK2bn12sound_handle7panningEv
                0x00000000       0x44 bn_audio_manager.bn_noflto.o
 .rodata._ZN2bn13audio_manager15set_mixing_rateENS_17audio_mixing_rateE.str1.4
                0x00000000       0x5d bn_audio_manager.bn_noflto.o
 .text._ZN2bn13audio_manager15set_mixing_rateENS_17audio_mixing_rateE
                0x00000000       0xc8 bn_audio_manager.bn_noflto.o
 .text._ZN2bn5audio15set_mixing_rateENS_17audio_mixing_rateE
                0x00000000        0xc bn_audio_manager.bn_noflto.o
 .text._ZN2bn13ostringstream6appendILi12EEEvNS_7fixed_tIXT_EEE
                0x00000000       0xa0 bn_audio_manager.bn_noflto.o
 .text._ZN3_bn6assert9show_argsIA25_cN2bn7fixed_tILi12EEEEEvPKcS7_S7_iRKT_RKT0_
                0x00000000       0x54 bn_audio_manager.bn_noflto.o
 .rodata._ZN2bn5music4playENS_10music_itemENS_7fixed_tILi12EEE.str1.4
                0x00000000       0x19 bn_audio_manager.bn_noflto.o
 .text._ZN2bn5music4playENS_10music_itemENS_7fixed_tILi12EEE
                0x00000000       0xa8 bn_audio_manager.bn_noflto.o
 .text._ZN2bn5music4playENS_10music_itemENS_7fixed_tILi12EEEb
                0x00000000       0xb8 bn_audio_manager.bn_noflto.o
 .rodata._ZN2bn5music10set_volumeENS_7fixed_tILi12EEE.str1.4
                0x00000000        0xb bn_audio_manager.bn_noflto.o
 .text._ZN2bn5music10set_volumeENS_7fixed_tILi12EEE
                0x00000000       0xb0 bn_audio_manager.bn_noflto.o
 .rodata._ZN2bn5sound17set_master_volumeENS_7fixed_tILi12EEE.str1.4
                0x00000000       0x23 bn_audio_manager.bn_noflto.o
 .text._ZN2bn5sound17set_master_volumeENS_7fixed_tILi12EEE
                0x00000000       0x90 bn_audio_manager.bn_noflto.o
 .rodata._ZN2bn6jingle4playENS_10music_itemENS_7fixed_tILi12EEE.str1.4
                0x00000000       0x10 bn_audio_manager.bn_noflto.o
 .text._ZN2bn6jingle4playENS_10music_itemENS_7fixed_tILi12EEE
                0x00000000       0x9c bn_audio_manager.bn_noflto.o
 .text._ZN2bn6jingle10set_volumeENS_7fixed_tILi12EEE
                0x00000000       0xb0 bn_audio_manager.bn_noflto.o
 .text._ZN2bn9dmg_music10set_volumeENS_7fixed_tILi12EEE
                0x00000000       0x40 bn_audio_manager.bn_noflto.o
 .rodata._ZN2bn12sound_handle9set_speedENS_7fixed_tILi12EEE.str1.4
                0x00000000       0x3d bn_audio_manager.bn_noflto.o
 .text._ZN2bn12sound_handle9set_speedENS_7fixed_tILi12EEE
                0x00000000       0x40 bn_audio_manager.bn_noflto.o
 .text._ZNK2bn10music_item4playENS_7fixed_tILi12EEEb
                0x00000000       0xac bn_audio_manager.bn_noflto.o
 .text._ZNK2bn10music_item11play_jingleENS_7fixed_tILi12EEE
                0x00000000       0xa0 bn_audio_manager.bn_noflto.o
 .text._ZNK2bn10music_item4playENS_7fixed_tILi12EEE
                0x00000000       0xa8 bn_audio_manager.bn_noflto.o
 .text._ZN3_bn6assert9show_argsIA26_cN2bn7fixed_tILi12EEEEEvPKcS7_S7_iRKT_RKT0_
                0x00000000       0x54 bn_audio_manager.bn_noflto.o
 .rodata._ZN2bn5music9set_tempoENS_7fixed_tILi12EEE.str1.4
                0x00000000       0x26 bn_audio_manager.bn_noflto.o
 .text._ZN2bn5music9set_tempoENS_7fixed_tILi12EEE
                0x00000000       0xb8 bn_audio_manager.bn_noflto.o
 .rodata._ZN2bn5music9set_pitchENS_7fixed_tILi12EEE.str1.4
                0x00000000       0x26 bn_audio_manager.bn_noflto.o
 .text._ZN2bn5music9set_pitchENS_7fixed_tILi12EEE
                0x00000000       0xb8 bn_audio_manager.bn_noflto.o
 .text._ZN3_bn6assert9show_argsIA27_cN2bn7fixed_tILi12EEEEEvPKcS7_S7_iRKT_RKT0_
                0x00000000       0x54 bn_audio_manager.bn_noflto.o
 .rodata._ZN2bn12sound_handle11set_panningENS_7fixed_tILi12EEE.str1.4
                0x00000000       0x27 bn_audio_manager.bn_noflto.o
 .text._ZN2bn12sound_handle11set_panningENS_7fixed_tILi12EEE
                0x00000000       0x44 bn_audio_manager.bn_noflto.o
 .text._ZN3_bn6assert9show_argsIA30_cN2bn7fixed_tILi12EEEEEvPKcS7_S7_iRKT_RKT0_
                0x00000000       0x54 bn_audio_manager.bn_noflto.o
 .rodata._ZN2bn9dmg_music15set_left_volumeENS_7fixed_tILi12EEE.str1.4
                0x00000000       0x2e bn_audio_manager.bn_noflto.o
 .text._ZN2bn9dmg_music15set_left_volumeENS_7fixed_tILi12EEE
                0x00000000       0x48 bn_audio_manager.bn_noflto.o
 .text._ZN3_bn6assert9show_argsIA31_cN2bn7fixed_tILi12EEEEEvPKcS7_S7_iRKT_RKT0_
                0x00000000       0x54 bn_audio_manager.bn_noflto.o
 .rodata._ZN2bn9dmg_music16set_right_volumeENS_7fixed_tILi12EEE.str1.4
                0x00000000       0x33 bn_audio_manager.bn_noflto.o
 .text._ZN2bn9dmg_music16set_right_volumeENS_7fixed_tILi12EEE
                0x00000000       0x4c bn_audio_manager.bn_noflto.o
 .text._ZN2bn9dmg_music10set_volumeENS_7fixed_tILi12EEES2_
                0x00000000       0x5c bn_audio_manager.bn_noflto.o
 .rodata._ZN2bn14iunordered_mapIjNS_13audio_manager15sound_data_typeENS_15identity_hasherENS_8equal_toIjEEEclEjRKj.str1.4
                0x00000000       0x1d bn_audio_manager.bn_noflto.o
 .text._ZN2bn14iunordered_mapIjNS_13audio_manager15sound_data_typeENS_15identity_hasherENS_8equal_toIjEEEclEjRKj
                0x00000000      0x11c bn_audio_manager.bn_noflto.o
 .rodata._ZN2bn13audio_manager10play_soundEiNS_10sound_itemE.str1.4
                0x00000000       0x2c bn_audio_manager.bn_noflto.o
 .text._ZN2bn13audio_manager10play_soundEiNS_10sound_itemE
                0x00000000       0xc8 bn_audio_manager.bn_noflto.o
 .text._ZN2bn5sound4playENS_10sound_itemE
                0x00000000       0x10 bn_audio_manager.bn_noflto.o
 .text._ZNK2bn10sound_item4playEv
                0x00000000       0x10 bn_audio_manager.bn_noflto.o
 .rodata._ZN2bn5sound18play_with_priorityEiNS_10sound_itemE.str1.4
                0x00000000       0x38 bn_audio_manager.bn_noflto.o
 .text._ZN2bn5sound18play_with_priorityEiNS_10sound_itemE
                0x00000000       0x48 bn_audio_manager.bn_noflto.o
 .text._ZNK2bn10sound_item18play_with_priorityEi
                0x00000000       0x4c bn_audio_manager.bn_noflto.o
 .text._ZN2bn13audio_manager10play_soundEiNS_10sound_itemENS_7fixed_tILi12EEES3_S3_
                0x00000000       0xdc bn_audio_manager.bn_noflto.o
 .text._ZN2bn5sound4playENS_10sound_itemENS_7fixed_tILi12EEE
                0x00000000       0x48 bn_audio_manager.bn_noflto.o
 .text._ZN2bn5sound4playENS_10sound_itemENS_7fixed_tILi12EEES3_S3_
                0x00000000       0x98 bn_audio_manager.bn_noflto.o
 .text._ZNK2bn10sound_item4playENS_7fixed_tILi12EEES2_S2_
                0x00000000       0x10 bn_audio_manager.bn_noflto.o
 .text._ZN2bn5sound18play_with_priorityEiNS_10sound_itemENS_7fixed_tILi12EEE
                0x00000000       0x70 bn_audio_manager.bn_noflto.o
 .text._ZN2bn5sound18play_with_priorityEiNS_10sound_itemENS_7fixed_tILi12EEES3_S3_
                0x00000000       0xc0 bn_audio_manager.bn_noflto.o
 .text._ZNK2bn10sound_item18play_with_priorityEiNS_7fixed_tILi12EEES2_S2_
                0x00000000       0x1c bn_audio_manager.bn_noflto.o
 .text._ZNK2bn10sound_item4playENS_7fixed_tILi12EEE
                0x00000000       0x44 bn_audio_manager.bn_noflto.o
 .text._ZNK2bn10sound_item18play_with_priorityEiNS_7fixed_tILi12EEE
                0x00000000       0x78 bn_audio_manager.bn_noflto.o
 .group         0x00000000        0xc bn_best_fit_allocator.o
 .group         0x00000000        0xc bn_best_fit_allocator.o
 .group         0x00000000        0xc bn_best_fit_allocator.o
 .group         0x00000000        0xc bn_best_fit_allocator.o
 .group         0x00000000        0xc bn_best_fit_allocator.o
 .group         0x00000000        0xc bn_best_fit_allocator.o
 .group         0x00000000        0xc bn_best_fit_allocator.o
 .text          0x00000000        0x0 bn_best_fit_allocator.o
 .data          0x00000000        0x0 bn_best_fit_allocator.o
 .bss           0x00000000        0x0 bn_best_fit_allocator.o
 .rodata._ZNK2bn18best_fit_allocator10log_statusEv.str1.4
                0x00000000       0x54 bn_best_fit_allocator.o
 .text._ZNK2bn18best_fit_allocator10log_statusEv
                0x00000000      0x168 bn_best_fit_allocator.o
 .text._ZN2bn18best_fit_allocator15_best_free_itemEi
                0x00000000       0x48 bn_best_fit_allocator.o
 .text._ZN2bn18best_fit_allocatorD2Ev
                0x00000000       0x38 bn_best_fit_allocator.o
 .text._ZN2bn18best_fit_allocator5allocEi
                0x00000000      0x144 bn_best_fit_allocator.o
 .text._ZN3_bn6assert9show_argsIA14_ciEEvPKcS4_S4_iRKT_RKT0_
                0x00000000       0x54 bn_best_fit_allocator.o
 .rodata._ZN2bn18best_fit_allocator6callocEii.str1.4
                0x00000000       0x22 bn_best_fit_allocator.o
 .text._ZN2bn18best_fit_allocator6callocEii
                0x00000000       0x7c bn_best_fit_allocator.o
 .text._ZN3_bn6assert9show_argsIA21_cEEvPKcS4_S4_iRKT_
                0x00000000       0x48 bn_best_fit_allocator.o
 .text._ZN3_bn6assert9show_argsIA19_ciEEvPKcS4_S4_iRKT_RKT0_
                0x00000000       0x54 bn_best_fit_allocator.o
 .rodata._ZN2bn18best_fit_allocator7reallocEPvi.str1.4
                0x00000000       0x63 bn_best_fit_allocator.o
 .text._ZN2bn18best_fit_allocator7reallocEPvi
                0x00000000       0xc0 bn_best_fit_allocator.o
 .group         0x00000000        0xc bn_bg_blocks_manager.o
 .group         0x00000000        0xc bn_bg_blocks_manager.o
 .group         0x00000000        0xc bn_bg_blocks_manager.o
 .group         0x00000000        0xc bn_bg_blocks_manager.o
 .group         0x00000000        0xc bn_bg_blocks_manager.o
 .group         0x00000000        0xc bn_bg_blocks_manager.o
 .group         0x00000000        0xc bn_bg_blocks_manager.o
 .group         0x00000000        0xc bn_bg_blocks_manager.o
 .group         0x00000000        0xc bn_bg_blocks_manager.o
 .group         0x00000000        0xc bn_bg_blocks_manager.o
 .group         0x00000000        0xc bn_bg_blocks_manager.o
 .group         0x00000000        0xc bn_bg_blocks_manager.o
 .group         0x00000000        0xc bn_bg_blocks_manager.o
 .group         0x00000000        0xc bn_bg_blocks_manager.o
 .group         0x00000000        0xc bn_bg_blocks_manager.o
 .group         0x00000000        0xc bn_bg_blocks_manager.o
 .group         0x00000000        0xc bn_bg_blocks_manager.o
 .group         0x00000000        0xc bn_bg_blocks_manager.o
 .group         0x00000000        0xc bn_bg_blocks_manager.o
 .group         0x00000000        0xc bn_bg_blocks_manager.o
 .group         0x00000000        0xc bn_bg_blocks_manager.o
 .group         0x00000000        0xc bn_bg_blocks_manager.o
 .group         0x00000000        0xc bn_bg_blocks_manager.o
 .group         0x00000000        0xc bn_bg_blocks_manager.o
 .group         0x00000000        0xc bn_bg_blocks_manager.o
 .group         0x00000000        0xc bn_bg_blocks_manager.o
 .group         0x00000000        0xc bn_bg_blocks_manager.o
 .group         0x00000000        0xc bn_bg_blocks_manager.o
 .group         0x00000000        0xc bn_bg_blocks_manager.o
 .group         0x00000000        0xc bn_bg_blocks_manager.o
 .text          0x00000000        0x0 bn_bg_blocks_manager.o
 .data          0x00000000        0x0 bn_bg_blocks_manager.o
 .bss           0x00000000        0x0 bn_bg_blocks_manager.o
 .text._ZN2bn7bg_maps16used_cells_countEv
                0x00000000       0x40 bn_bg_blocks_manager.o
 .text._ZN2bn7bg_maps21available_cells_countEv
                0x00000000       0x10 bn_bg_blocks_manager.o
 .text._ZN2bn7bg_maps17used_blocks_countEv
                0x00000000       0x3c bn_bg_blocks_manager.o
 .text._ZN2bn7bg_maps22available_blocks_countEv
                0x00000000       0x10 bn_bg_blocks_manager.o
 .text._ZN2bn7bg_maps30new_affine_big_map_canvas_sizeEv
                0x00000000       0x14 bn_bg_blocks_manager.o
 .text._ZN2bn7bg_maps34set_new_affine_big_map_canvas_sizeENS_29affine_bg_big_map_canvas_sizeE
                0x00000000       0x10 bn_bg_blocks_manager.o
 .text._ZN2bn8bg_tiles16used_tiles_countEv
                0x00000000       0x40 bn_bg_blocks_manager.o
 .text._ZN2bn8bg_tiles21available_tiles_countEv
                0x00000000       0x10 bn_bg_blocks_manager.o
 .text._ZN2bn8bg_tiles17used_blocks_countEv
                0x00000000       0x3c bn_bg_blocks_manager.o
 .text._ZN2bn8bg_tiles22available_blocks_countEv
                0x00000000       0x10 bn_bg_blocks_manager.o
 .text._ZN2bn8bg_tiles12allow_offsetEv
                0x00000000       0x10 bn_bg_blocks_manager.o
 .text._ZN2bn8bg_tiles16set_allow_offsetEb
                0x00000000       0x10 bn_bg_blocks_manager.o
 .text._ZN2bn18regular_bg_map_ptrC2ERKS0_
                0x00000000       0x20 bn_bg_blocks_manager.o
 .text._ZNK2bn18regular_bg_map_ptr11compressionEv
                0x00000000       0x1c bn_bg_blocks_manager.o
 .text._ZN2bn20regular_bg_tiles_ptrC2ERKS0_
                0x00000000       0x20 bn_bg_blocks_manager.o
 .text._ZNK2bn20regular_bg_tiles_ptr2idEv
                0x00000000       0x18 bn_bg_blocks_manager.o
 .text._ZNK2bn20regular_bg_tiles_ptr11tiles_countEv
                0x00000000       0x18 bn_bg_blocks_manager.o
 .text._ZNK2bn20regular_bg_tiles_ptr11compressionEv
                0x00000000       0x1c bn_bg_blocks_manager.o
 .text._ZN2bn17affine_bg_map_ptrC2ERKS0_
                0x00000000       0x20 bn_bg_blocks_manager.o
 .text._ZNK2bn17affine_bg_map_ptr3bigEv
                0x00000000       0x18 bn_bg_blocks_manager.o
 .text._ZNK2bn17affine_bg_map_ptr11compressionEv
                0x00000000       0x1c bn_bg_blocks_manager.o
 .text._ZN2bn19affine_bg_tiles_ptrC2ERKS0_
                0x00000000       0x20 bn_bg_blocks_manager.o
 .text._ZNK2bn19affine_bg_tiles_ptr2idEv
                0x00000000       0x18 bn_bg_blocks_manager.o
 .text._ZNK2bn19affine_bg_tiles_ptr11tiles_countEv
                0x00000000       0x18 bn_bg_blocks_manager.o
 .text._ZNK2bn19affine_bg_tiles_ptr11compressionEv
                0x00000000       0x1c bn_bg_blocks_manager.o
 .text._ZN2bn17bg_blocks_manager16used_tiles_countEv
                0x00000000       0x40 bn_bg_blocks_manager.o
 .text._ZN2bn17bg_blocks_manager21available_tiles_countEv
                0x00000000       0x10 bn_bg_blocks_manager.o
 .text._ZN2bn17bg_blocks_manager22used_tile_blocks_countEv
                0x00000000       0x3c bn_bg_blocks_manager.o
 .text._ZN2bn17bg_blocks_manager27available_tile_blocks_countEv
                0x00000000       0x10 bn_bg_blocks_manager.o
 .text._ZN2bn17bg_blocks_manager20used_map_cells_countEv
                0x00000000       0x40 bn_bg_blocks_manager.o
 .text._ZN2bn17bg_blocks_manager25available_map_cells_countEv
                0x00000000       0x10 bn_bg_blocks_manager.o
 .text._ZN2bn17bg_blocks_manager21used_map_blocks_countEv
                0x00000000       0x3c bn_bg_blocks_manager.o
 .text._ZN2bn17bg_blocks_manager26available_map_blocks_countEv
                0x00000000       0x10 bn_bg_blocks_manager.o
 .text._ZN2bn17bg_blocks_manager30new_affine_big_map_canvas_sizeEv
                0x00000000       0x14 bn_bg_blocks_manager.o
 .text._ZN2bn17bg_blocks_manager34set_new_affine_big_map_canvas_sizeENS_29affine_bg_big_map_canvas_sizeE
                0x00000000       0x10 bn_bg_blocks_manager.o
 .text._ZN2bn17bg_blocks_manager18allow_tiles_offsetEv
                0x00000000       0x10 bn_bg_blocks_manager.o
 .text._ZN2bn17bg_blocks_manager22set_allow_tiles_offsetEb
                0x00000000       0x10 bn_bg_blocks_manager.o
 .text._ZN2bn7bg_maps10log_statusEv
                0x00000000        0xc bn_bg_blocks_manager.o
 .text._ZN2bn8bg_tiles10log_statusEv
                0x00000000        0xc bn_bg_blocks_manager.o
 .text._ZN2bn17bg_blocks_manager15increase_usagesEi
                0x00000000       0x18 bn_bg_blocks_manager.o
 .text._ZN2bn18regular_bg_map_ptraSERKS0_
                0x00000000       0x40 bn_bg_blocks_manager.o
 .text._ZN2bn20regular_bg_tiles_ptraSERKS0_
                0x00000000       0x40 bn_bg_blocks_manager.o
 .text._ZN2bn20regular_bg_tiles_ptrD2Ev
                0x00000000       0x18 bn_bg_blocks_manager.o
 .text._ZN2bn17affine_bg_map_ptraSERKS0_
                0x00000000       0x40 bn_bg_blocks_manager.o
 .text._ZN2bn17affine_bg_map_ptrD2Ev
                0x00000000       0x18 bn_bg_blocks_manager.o
 .text._ZN2bn19affine_bg_tiles_ptraSERKS0_
                0x00000000       0x40 bn_bg_blocks_manager.o
 .text._ZN2bn19affine_bg_tiles_ptrD2Ev
                0x00000000       0x18 bn_bg_blocks_manager.o
 .text._ZN2bn17bg_blocks_manager5hw_idEi
                0x00000000       0x14 bn_bg_blocks_manager.o
 .text._ZN2bn17bg_blocks_manager12hw_tiles_cbbEi
                0x00000000       0x14 bn_bg_blocks_manager.o
 .text._ZN2bn17bg_blocks_manager11tiles_countEi
                0x00000000       0x14 bn_bg_blocks_manager.o
 .text._ZN2bn17bg_blocks_manager14map_dimensionsEi
                0x00000000       0x18 bn_bg_blocks_manager.o
 .text._ZN2bn17bg_blocks_manager7big_mapEi
                0x00000000       0x14 bn_bg_blocks_manager.o
 .text._ZN2bn17bg_blocks_manager11compressionEi
                0x00000000       0x18 bn_bg_blocks_manager.o
 .text._ZN2bn17bg_blocks_manager24remove_regular_map_tilesEi
                0x00000000       0x38 bn_bg_blocks_manager.o
 .text._ZN2bn17bg_blocks_manager23remove_affine_map_tilesEi
                0x00000000       0x38 bn_bg_blocks_manager.o
 .text._ZN2bn17bg_blocks_manager18remove_map_paletteEi
                0x00000000       0x2c bn_bg_blocks_manager.o
 .text._ZNK2bn19regular_bg_map_item10decompressENS_4spanItEE
                0x00000000       0xfc bn_bg_blocks_manager.o
 .rodata._ZNK2bn19regular_bg_map_item10decompressERtRKNS_4sizeE.str1.4
                0x00000000       0x33 bn_bg_blocks_manager.o
 .text._ZNK2bn19regular_bg_map_item10decompressERtRKNS_4sizeE
                0x00000000       0x4c bn_bg_blocks_manager.o
 .rodata._ZNK2bn18affine_bg_map_item10decompressENS_4spanIhEE.str1.4
                0x00000000       0x1c bn_bg_blocks_manager.o
 .text._ZNK2bn18affine_bg_map_item10decompressENS_4spanIhEE
                0x00000000       0xfc bn_bg_blocks_manager.o
 .text._ZNK2bn18affine_bg_map_item10decompressERhRKNS_4sizeE
                0x00000000       0x4c bn_bg_blocks_manager.o
 .text._ZN3_bn6assert9show_argsIA33_cEEvPKcS4_S4_iRKT_
                0x00000000       0x48 bn_bg_blocks_manager.o
 .text._ZN2bn17bg_blocks_manager18find_regular_tilesERKNS_21regular_bg_tiles_itemE
                0x00000000       0x1c bn_bg_blocks_manager.o
 .text._ZN2bn17bg_blocks_manager17find_affine_tilesERKNS_20affine_bg_tiles_itemE
                0x00000000       0x1c bn_bg_blocks_manager.o
 .text._ZNK2bn20affine_bg_tiles_item10find_tilesEv
                0x00000000       0x30 bn_bg_blocks_manager.o
 .text._ZN2bn20regular_bg_tiles_ptr4findERKNS_21regular_bg_tiles_itemE
                0x00000000       0x30 bn_bg_blocks_manager.o
 .text._ZN2bn19affine_bg_tiles_ptr4findERKNS_20affine_bg_tiles_itemE
                0x00000000       0x30 bn_bg_blocks_manager.o
 .text._ZNK2bn21regular_bg_tiles_item10find_tilesEv
                0x00000000       0x30 bn_bg_blocks_manager.o
 .text._ZN3_bn6assert9show_argsIJA31_cA15_cPKtA16_ciA17_ciA34_cN2bn11string_viewEEEEvPKcSC_SC_iDpRKT_
                0x00000000       0x90 bn_bg_blocks_manager.o
 .text._ZN3_bn6assert9show_argsIA26_cEEvPKcS4_S4_iRKT_
                0x00000000       0x48 bn_bg_blocks_manager.o
 .rodata._ZN2bn17bg_blocks_manager22set_affine_map_paletteEiONS_14bg_palette_ptrE.str1.4
                0x00000000       0x5b bn_bg_blocks_manager.o
 .text._ZN2bn17bg_blocks_manager22set_affine_map_paletteEiONS_14bg_palette_ptrE
                0x00000000       0x90 bn_bg_blocks_manager.o
 .text._ZN2bn17affine_bg_map_ptr11set_paletteERKNS_14bg_palette_ptrE
                0x00000000       0x24 bn_bg_blocks_manager.o
 .text._ZN2bn17affine_bg_map_ptr11set_paletteERKNS_15bg_palette_itemE
                0x00000000       0x24 bn_bg_blocks_manager.o
 .text._ZN2bn17affine_bg_map_ptr11set_paletteEONS_14bg_palette_ptrE
                0x00000000       0x94 bn_bg_blocks_manager.o
 .text._ZN3_bn6assert9show_argsIJA49_ciA17_ciA34_cN2bn11string_viewEEEEvPKcS8_S8_iDpRKT_
                0x00000000       0x74 bn_bg_blocks_manager.o
 .text._ZN3_bn6assert9show_argsIJA48_ciA17_ciA34_cN2bn11string_viewEEEEvPKcS8_S8_iDpRKT_
                0x00000000       0x74 bn_bg_blocks_manager.o
 .text._ZN3_bn6assert9show_argsIJA53_ciA34_cN2bn11string_viewEEEEvPKcS7_S7_iDpRKT_
                0x00000000       0x64 bn_bg_blocks_manager.o
 .text._ZN3_bn6assert9show_argsIA20_ciEEvPKcS4_S4_iRKT_RKT0_
                0x00000000       0x54 bn_bg_blocks_manager.o
 .text._ZN3_bn6assert9show_argsIJA41_ciA4_ciEEEvPKcS5_S5_iDpRKT_
                0x00000000       0x58 bn_bg_blocks_manager.o
 .text._ZN3_bn6assert9show_argsIJA31_cA14_ciA15_ciA17_ciA34_cN2bn11string_viewEEEEvPKcSA_SA_iDpRKT_
                0x00000000       0x90 bn_bg_blocks_manager.o
 .text._ZN3_bn6assert9show_argsIA15_cEEvPKcS4_S4_iRKT_
                0x00000000       0x48 bn_bg_blocks_manager.o
 .rodata._ZN2bn17bg_blocks_manager26affine_big_map_canvas_sizeEi.str1.4
                0x00000000       0x2b bn_bg_blocks_manager.o
 .text._ZN2bn17bg_blocks_manager26affine_big_map_canvas_sizeEi
                0x00000000       0x48 bn_bg_blocks_manager.o
 .text._ZNK2bn17affine_bg_map_ptr15big_canvas_sizeEv
                0x00000000       0x4c bn_bg_blocks_manager.o
 .text._ZN3_bn6assert9show_argsIJA46_ciA4_ciEEEvPKcS5_S5_iDpRKT_
                0x00000000       0x58 bn_bg_blocks_manager.o
 .text._ZN3_bn6assert9show_argsIA17_cEEvPKcS4_S4_iRKT_
                0x00000000       0x48 bn_bg_blocks_manager.o
 .rodata._ZN2bn17bg_blocks_manager6reloadEi.str1.4
                0x00000000       0x19 bn_bg_blocks_manager.o
 .text._ZN2bn17bg_blocks_manager6reloadEi
                0x00000000       0x54 bn_bg_blocks_manager.o
 .rodata._ZN2bn17bg_blocks_manager21set_regular_tiles_refEiRKNS_21regular_bg_tiles_itemE.str1.4
                0x00000000       0x46 bn_bg_blocks_manager.o
 .text._ZN2bn17bg_blocks_manager21set_regular_tiles_refEiRKNS_21regular_bg_tiles_itemE
                0x00000000       0xc8 bn_bg_blocks_manager.o
 .text._ZN2bn20regular_bg_tiles_ptr13set_tiles_refERKNS_21regular_bg_tiles_itemE
                0x00000000       0x14 bn_bg_blocks_manager.o
 .rodata._ZN2bn17bg_blocks_manager20set_affine_tiles_refEiRKNS_20affine_bg_tiles_itemE.str1.4
                0x00000000       0x15 bn_bg_blocks_manager.o
 .text._ZN2bn17bg_blocks_manager20set_affine_tiles_refEiRKNS_20affine_bg_tiles_itemE
                0x00000000       0xc8 bn_bg_blocks_manager.o
 .text._ZN2bn19affine_bg_tiles_ptr13set_tiles_refERKNS_20affine_bg_tiles_itemE
                0x00000000       0x14 bn_bg_blocks_manager.o
 .text._ZN2bn18regular_bg_map_ptr16reload_cells_refEv
                0x00000000       0x58 bn_bg_blocks_manager.o
 .text._ZN2bn20regular_bg_tiles_ptr16reload_tiles_refEv
                0x00000000       0x58 bn_bg_blocks_manager.o
 .text._ZN2bn17affine_bg_map_ptr16reload_cells_refEv
                0x00000000       0x58 bn_bg_blocks_manager.o
 .text._ZN2bn19affine_bg_tiles_ptr16reload_tiles_refEv
                0x00000000       0x58 bn_bg_blocks_manager.o
 .text._ZN3_bn6assert9show_argsIJA42_ciA4_ctEEEvPKcS5_S5_iDpRKT_
                0x00000000       0x58 bn_bg_blocks_manager.o
 .text._ZN3_bn6assert9show_argsIJA44_ciA4_ctEEEvPKcS5_S5_iDpRKT_
                0x00000000       0x58 bn_bg_blocks_manager.o
 .text._ZN3_bn6assert9show_argsIJA38_cbA4_cbEEEvPKcS5_S5_iDpRKT_
                0x00000000       0x7c bn_bg_blocks_manager.o
 .text._ZN2bn17bg_blocks_manager25set_regular_map_cells_refEiRKNS_19regular_bg_map_itemEPKt
                0x00000000      0x19c bn_bg_blocks_manager.o
 .text._ZN2bn18regular_bg_map_ptr13set_cells_refERKNS_19regular_bg_map_itemE
                0x00000000       0x14 bn_bg_blocks_manager.o
 .text._ZN2bn18regular_bg_map_ptr13set_cells_refERKNS_19regular_bg_map_itemEi
                0x00000000       0x88 bn_bg_blocks_manager.o
 .rodata._ZN2bn17bg_blocks_manager24set_affine_map_cells_refEiRKNS_18affine_bg_map_itemEPKh.str1.4
                0x00000000       0x19 bn_bg_blocks_manager.o
 .text._ZN2bn17bg_blocks_manager24set_affine_map_cells_refEiRKNS_18affine_bg_map_itemEPKh
                0x00000000      0x19c bn_bg_blocks_manager.o
 .text._ZN2bn17affine_bg_map_ptr13set_cells_refERKNS_18affine_bg_map_itemE
                0x00000000       0x14 bn_bg_blocks_manager.o
 .rodata._ZN2bn17affine_bg_map_ptr13set_cells_refERKNS_18affine_bg_map_itemEi.str1.4
                0x00000000       0x18 bn_bg_blocks_manager.o
 .text._ZN2bn17affine_bg_map_ptr13set_cells_refERKNS_18affine_bg_map_itemEi
                0x00000000       0x84 bn_bg_blocks_manager.o
 .text._ZN3_bn6assert9show_argsIA22_cEEvPKcS4_S4_iRKT_
                0x00000000       0x48 bn_bg_blocks_manager.o
 .text._ZN2bn17bg_blocks_manager17regular_map_tilesEi
                0x00000000       0x44 bn_bg_blocks_manager.o
 .text._ZN2bn17bg_blocks_manager16affine_map_tilesEi
                0x00000000       0x44 bn_bg_blocks_manager.o
 .text._ZN2bn17bg_blocks_manager11map_paletteEi
                0x00000000       0x44 bn_bg_blocks_manager.o
 .text._ZNK2bn18regular_bg_map_ptr7paletteEv
                0x00000000       0x48 bn_bg_blocks_manager.o
 .text._ZNK2bn17affine_bg_map_ptr7paletteEv
                0x00000000       0x48 bn_bg_blocks_manager.o
 .text._ZN2bn17bg_blocks_manager14palette_offsetEi
                0x00000000       0x48 bn_bg_blocks_manager.o
 .text._ZNK2bn18regular_bg_map_ptr20palette_banks_offsetEv
                0x00000000       0x48 bn_bg_blocks_manager.o
 .text._ZN2bn17bg_blocks_manager19affine_tiles_offsetEi
                0x00000000       0x54 bn_bg_blocks_manager.o
 .text._ZNK2bn17affine_bg_map_ptr12tiles_offsetEv
                0x00000000       0x58 bn_bg_blocks_manager.o
 .text._ZN2bn17bg_blocks_manager20regular_tiles_offsetEi
                0x00000000       0x6c bn_bg_blocks_manager.o
 .text._ZNK2bn18regular_bg_map_ptr12tiles_offsetEv
                0x00000000       0x70 bn_bg_blocks_manager.o
 .text._ZN2bn17bg_blocks_manager20set_affine_map_tilesEiONS_19affine_bg_tiles_ptrE
                0x00000000      0x130 bn_bg_blocks_manager.o
 .text._ZN2bn17affine_bg_map_ptr9set_tilesERKNS_19affine_bg_tiles_ptrE
                0x00000000       0x44 bn_bg_blocks_manager.o
 .text._ZN2bn17affine_bg_map_ptr9set_tilesEONS_19affine_bg_tiles_ptrE
                0x00000000       0x14 bn_bg_blocks_manager.o
 .rodata._ZN2bn17bg_blocks_manager12_GLOBAL__N_1L21_find_affine_map_implERKNS_18affine_bg_map_itemEPKhRKNS_19affine_bg_tiles_ptrERKNS_14bg_palette_ptrE.str1.4
                0x00000000       0x16 bn_bg_blocks_manager.o
 .text._ZN2bn17bg_blocks_manager12_GLOBAL__N_1L21_find_affine_map_implERKNS_18affine_bg_map_itemEPKhRKNS_19affine_bg_tiles_ptrERKNS_14bg_palette_ptrE
                0x00000000      0x1e0 bn_bg_blocks_manager.o
 .text._ZN2bn17bg_blocks_manager15find_affine_mapERKNS_18affine_bg_map_itemEPKhRKNS_19affine_bg_tiles_ptrERKNS_14bg_palette_ptrE
                0x00000000        0xc bn_bg_blocks_manager.o
 .text._ZN2bn17affine_bg_map_ptr4findERKNS_18affine_bg_map_itemERKNS_19affine_bg_tiles_ptrERKNS_14bg_palette_ptrE
                0x00000000       0x24 bn_bg_blocks_manager.o
 .text._ZN2bn17affine_bg_map_ptr4findERKNS_18affine_bg_map_itemERKNS_19affine_bg_tiles_ptrERKNS_14bg_palette_ptrEi
                0x00000000       0x98 bn_bg_blocks_manager.o
 .text._ZNK2bn18affine_bg_map_item8find_mapERKNS_19affine_bg_tiles_ptrERKNS_14bg_palette_ptrE
                0x00000000       0x24 bn_bg_blocks_manager.o
 .text._ZNK2bn18affine_bg_map_item8find_mapERKNS_19affine_bg_tiles_ptrERKNS_14bg_palette_ptrEi
                0x00000000       0x98 bn_bg_blocks_manager.o
 .text._ZN2bn17affine_bg_map_ptr4findERKNS_14affine_bg_itemE
                0x00000000       0xc8 bn_bg_blocks_manager.o
 .text._ZN2bn17affine_bg_map_ptr4findERKNS_14affine_bg_itemEi
                0x00000000      0x140 bn_bg_blocks_manager.o
 .text._ZN2bn18regular_bg_map_ptr21set_tiles_and_paletteENS_20regular_bg_tiles_ptrENS_14bg_palette_ptrE
                0x00000000       0x14 bn_bg_blocks_manager.o
 .text._ZN2bn18regular_bg_map_ptr9set_tilesERKNS_20regular_bg_tiles_ptrE
                0x00000000       0x44 bn_bg_blocks_manager.o
 .text._ZN2bn18regular_bg_map_ptr9set_tilesEONS_20regular_bg_tiles_ptrE
                0x00000000       0x14 bn_bg_blocks_manager.o
 .text._ZN2bn18regular_bg_map_ptr11set_paletteERKNS_14bg_palette_ptrE
                0x00000000       0x24 bn_bg_blocks_manager.o
 .text._ZN2bn18regular_bg_map_ptr11set_paletteEONS_14bg_palette_ptrE
                0x00000000       0x14 bn_bg_blocks_manager.o
 .text._ZN2bn18regular_bg_map_ptr11set_paletteERKNS_15bg_palette_itemE
                0x00000000       0xf0 bn_bg_blocks_manager.o
 .text._ZN2bn17bg_blocks_manager16find_regular_mapERKNS_19regular_bg_map_itemEPKtRKNS_20regular_bg_tiles_ptrERKNS_14bg_palette_ptrE
                0x00000000        0xc bn_bg_blocks_manager.o
 .text._ZN2bn18regular_bg_map_ptr4findERKNS_19regular_bg_map_itemERKNS_20regular_bg_tiles_ptrERKNS_14bg_palette_ptrE
                0x00000000       0x24 bn_bg_blocks_manager.o
 .text._ZN2bn18regular_bg_map_ptr4findERKNS_19regular_bg_map_itemERKNS_20regular_bg_tiles_ptrERKNS_14bg_palette_ptrEi
                0x00000000       0xa0 bn_bg_blocks_manager.o
 .text._ZNK2bn19regular_bg_map_item8find_mapERKNS_20regular_bg_tiles_ptrERKNS_14bg_palette_ptrE
                0x00000000       0x24 bn_bg_blocks_manager.o
 .text._ZNK2bn19regular_bg_map_item8find_mapERKNS_20regular_bg_tiles_ptrERKNS_14bg_palette_ptrEi
                0x00000000       0xa0 bn_bg_blocks_manager.o
 .text._ZN2bn18regular_bg_map_ptr4findERKNS_15regular_bg_itemE
                0x00000000       0xc8 bn_bg_blocks_manager.o
 .text._ZN2bn18regular_bg_map_ptr4findERKNS_15regular_bg_itemEi
                0x00000000      0x144 bn_bg_blocks_manager.o
 .text._ZN2bn20regular_bg_tiles_ptr6createERKNS_21regular_bg_tiles_itemE
                0x00000000       0x18 bn_bg_blocks_manager.o
 .text._ZN2bn18regular_bg_map_ptr9set_tilesERKNS_21regular_bg_tiles_itemE
                0x00000000       0xb0 bn_bg_blocks_manager.o
 .text._ZN2bn18regular_bg_map_ptr21set_tiles_and_paletteERKNS_21regular_bg_tiles_itemERKNS_15bg_palette_itemE
                0x00000000      0x16c bn_bg_blocks_manager.o
 .text._ZNK2bn21regular_bg_tiles_item12create_tilesEv
                0x00000000       0x18 bn_bg_blocks_manager.o
 .text._ZNK2bn21regular_bg_tiles_item16create_new_tilesEv
                0x00000000       0x18 bn_bg_blocks_manager.o
 .text._ZN2bn20regular_bg_tiles_ptr15create_optionalERKNS_21regular_bg_tiles_itemE
                0x00000000       0x24 bn_bg_blocks_manager.o
 .text._ZNK2bn21regular_bg_tiles_item21create_tiles_optionalEv
                0x00000000       0x24 bn_bg_blocks_manager.o
 .text._ZNK2bn21regular_bg_tiles_item25create_new_tiles_optionalEv
                0x00000000       0x24 bn_bg_blocks_manager.o
 .rodata._ZN2bn17bg_blocks_manager19create_affine_tilesERKNS_20affine_bg_tiles_itemEb.str1.4
                0x00000000       0x33 bn_bg_blocks_manager.o
 .text._ZN2bn17bg_blocks_manager19create_affine_tilesERKNS_20affine_bg_tiles_itemEb
                0x00000000      0x134 bn_bg_blocks_manager.o
 .text._ZN2bn19affine_bg_tiles_ptr6createERKNS_20affine_bg_tiles_itemE
                0x00000000       0x18 bn_bg_blocks_manager.o
 .text._ZN2bn17affine_bg_map_ptr9set_tilesERKNS_20affine_bg_tiles_itemE
                0x00000000       0xb0 bn_bg_blocks_manager.o
 .text._ZNK2bn20affine_bg_tiles_item12create_tilesEv
                0x00000000       0x18 bn_bg_blocks_manager.o
 .text._ZNK2bn20affine_bg_tiles_item16create_new_tilesEv
                0x00000000       0x18 bn_bg_blocks_manager.o
 .text._ZN2bn19affine_bg_tiles_ptr15create_optionalERKNS_20affine_bg_tiles_itemE
                0x00000000       0x24 bn_bg_blocks_manager.o
 .text._ZNK2bn20affine_bg_tiles_item21create_tiles_optionalEv
                0x00000000       0x24 bn_bg_blocks_manager.o
 .text._ZNK2bn20affine_bg_tiles_item25create_new_tiles_optionalEv
                0x00000000       0x24 bn_bg_blocks_manager.o
 .text._ZN2bn18regular_bg_map_ptr6createERKNS_19regular_bg_map_itemENS_20regular_bg_tiles_ptrENS_14bg_palette_ptrE
                0x00000000       0x20 bn_bg_blocks_manager.o
 .text._ZN2bn18regular_bg_map_ptr10create_newERKNS_19regular_bg_map_itemENS_20regular_bg_tiles_ptrENS_14bg_palette_ptrE
                0x00000000       0x50 bn_bg_blocks_manager.o
 .text._ZNK2bn19regular_bg_map_item10create_mapENS_20regular_bg_tiles_ptrENS_14bg_palette_ptrE
                0x00000000       0x50 bn_bg_blocks_manager.o
 .text._ZN2bn18regular_bg_map_ptr6createERKNS_19regular_bg_map_itemENS_20regular_bg_tiles_ptrENS_14bg_palette_ptrEi
                0x00000000       0x98 bn_bg_blocks_manager.o
 .text._ZN2bn18regular_bg_map_ptr6createERKNS_15regular_bg_itemE
                0x00000000       0x64 bn_bg_blocks_manager.o
 .text._ZN2bn18regular_bg_map_ptr15create_optionalERKNS_19regular_bg_map_itemENS_20regular_bg_tiles_ptrENS_14bg_palette_ptrE
                0x00000000       0x2c bn_bg_blocks_manager.o
 .text._ZN2bn18regular_bg_map_ptr15create_optionalERKNS_19regular_bg_map_itemENS_20regular_bg_tiles_ptrENS_14bg_palette_ptrEi
                0x00000000       0x9c bn_bg_blocks_manager.o
 .text._ZN2bn18regular_bg_map_ptr15create_optionalERKNS_15regular_bg_itemE
                0x00000000       0xac bn_bg_blocks_manager.o
 .text._ZN2bn18regular_bg_map_ptr15create_optionalERKNS_15regular_bg_itemEi
                0x00000000      0x118 bn_bg_blocks_manager.o
 .text._ZN2bn18regular_bg_map_ptr10create_newERKNS_19regular_bg_map_itemENS_20regular_bg_tiles_ptrENS_14bg_palette_ptrEi
                0x00000000       0xc4 bn_bg_blocks_manager.o
 .text._ZNK2bn19regular_bg_map_item10create_mapENS_20regular_bg_tiles_ptrENS_14bg_palette_ptrEi
                0x00000000       0xc4 bn_bg_blocks_manager.o
 .text._ZNK2bn19regular_bg_map_item14create_new_mapENS_20regular_bg_tiles_ptrENS_14bg_palette_ptrEi
                0x00000000       0xd4 bn_bg_blocks_manager.o
 .text._ZN2bn18regular_bg_map_ptr19create_new_optionalERKNS_19regular_bg_map_itemENS_20regular_bg_tiles_ptrENS_14bg_palette_ptrE
                0x00000000       0x58 bn_bg_blocks_manager.o
 .text._ZNK2bn19regular_bg_map_item19create_map_optionalENS_20regular_bg_tiles_ptrENS_14bg_palette_ptrE
                0x00000000       0x58 bn_bg_blocks_manager.o
 .text._ZNK2bn19regular_bg_map_item14create_new_mapENS_20regular_bg_tiles_ptrENS_14bg_palette_ptrE
                0x00000000       0x5c bn_bg_blocks_manager.o
 .text._ZNK2bn19regular_bg_map_item23create_new_map_optionalENS_20regular_bg_tiles_ptrENS_14bg_palette_ptrE
                0x00000000       0x64 bn_bg_blocks_manager.o
 .text._ZN2bn18regular_bg_map_ptr19create_new_optionalERKNS_19regular_bg_map_itemENS_20regular_bg_tiles_ptrENS_14bg_palette_ptrEi
                0x00000000       0xcc bn_bg_blocks_manager.o
 .text._ZNK2bn19regular_bg_map_item19create_map_optionalENS_20regular_bg_tiles_ptrENS_14bg_palette_ptrEi
                0x00000000       0xcc bn_bg_blocks_manager.o
 .text._ZNK2bn19regular_bg_map_item23create_new_map_optionalENS_20regular_bg_tiles_ptrENS_14bg_palette_ptrEi
                0x00000000       0xdc bn_bg_blocks_manager.o
 .rodata._ZN2bn17bg_blocks_manager17create_affine_mapERKNS_18affine_bg_map_itemEPKhONS_19affine_bg_tiles_ptrEONS_14bg_palette_ptrEb.str1.4
                0x00000000       0x9d bn_bg_blocks_manager.o
 .text._ZN2bn17bg_blocks_manager17create_affine_mapERKNS_18affine_bg_map_itemEPKhONS_19affine_bg_tiles_ptrEONS_14bg_palette_ptrEb
                0x00000000      0x338 bn_bg_blocks_manager.o
 .text._ZN2bn17affine_bg_map_ptr6createERKNS_18affine_bg_map_itemENS_19affine_bg_tiles_ptrENS_14bg_palette_ptrE
                0x00000000       0x20 bn_bg_blocks_manager.o
 .text._ZN2bn17affine_bg_map_ptr10create_newERKNS_18affine_bg_map_itemENS_19affine_bg_tiles_ptrENS_14bg_palette_ptrE
                0x00000000       0x50 bn_bg_blocks_manager.o
 .text._ZNK2bn18affine_bg_map_item10create_mapENS_19affine_bg_tiles_ptrENS_14bg_palette_ptrE
                0x00000000       0x50 bn_bg_blocks_manager.o
 .text._ZN2bn17affine_bg_map_ptr6createERKNS_18affine_bg_map_itemENS_19affine_bg_tiles_ptrENS_14bg_palette_ptrEi
                0x00000000       0x90 bn_bg_blocks_manager.o
 .text._ZN2bn17affine_bg_map_ptr6createERKNS_14affine_bg_itemE
                0x00000000       0x64 bn_bg_blocks_manager.o
 .text._ZN2bn17affine_bg_map_ptr6createERKNS_14affine_bg_itemEi
                0x00000000       0xd4 bn_bg_blocks_manager.o
 .text._ZN2bn17affine_bg_map_ptr15create_optionalERKNS_18affine_bg_map_itemENS_19affine_bg_tiles_ptrENS_14bg_palette_ptrE
                0x00000000       0x2c bn_bg_blocks_manager.o
 .text._ZN2bn17affine_bg_map_ptr15create_optionalERKNS_18affine_bg_map_itemENS_19affine_bg_tiles_ptrENS_14bg_palette_ptrEi
                0x00000000       0x9c bn_bg_blocks_manager.o
 .text._ZN2bn17affine_bg_map_ptr15create_optionalERKNS_14affine_bg_itemE
                0x00000000       0xac bn_bg_blocks_manager.o
 .text._ZN2bn17affine_bg_map_ptr15create_optionalERKNS_14affine_bg_itemEi
                0x00000000      0x114 bn_bg_blocks_manager.o
 .text._ZN2bn17affine_bg_map_ptr10create_newERKNS_18affine_bg_map_itemENS_19affine_bg_tiles_ptrENS_14bg_palette_ptrEi
                0x00000000       0xc4 bn_bg_blocks_manager.o
 .text._ZNK2bn18affine_bg_map_item10create_mapENS_19affine_bg_tiles_ptrENS_14bg_palette_ptrEi
                0x00000000       0xc4 bn_bg_blocks_manager.o
 .text._ZNK2bn18affine_bg_map_item14create_new_mapENS_19affine_bg_tiles_ptrENS_14bg_palette_ptrEi
                0x00000000       0xd0 bn_bg_blocks_manager.o
 .text._ZN2bn17affine_bg_map_ptr19create_new_optionalERKNS_18affine_bg_map_itemENS_19affine_bg_tiles_ptrENS_14bg_palette_ptrE
                0x00000000       0x58 bn_bg_blocks_manager.o
 .text._ZNK2bn18affine_bg_map_item19create_map_optionalENS_19affine_bg_tiles_ptrENS_14bg_palette_ptrE
                0x00000000       0x58 bn_bg_blocks_manager.o
 .text._ZNK2bn18affine_bg_map_item14create_new_mapENS_19affine_bg_tiles_ptrENS_14bg_palette_ptrE
                0x00000000       0x5c bn_bg_blocks_manager.o
 .text._ZNK2bn18affine_bg_map_item23create_new_map_optionalENS_19affine_bg_tiles_ptrENS_14bg_palette_ptrE
                0x00000000       0x64 bn_bg_blocks_manager.o
 .text._ZN2bn17affine_bg_map_ptr19create_new_optionalERKNS_18affine_bg_map_itemENS_19affine_bg_tiles_ptrENS_14bg_palette_ptrEi
                0x00000000       0xcc bn_bg_blocks_manager.o
 .text._ZNK2bn18affine_bg_map_item19create_map_optionalENS_19affine_bg_tiles_ptrENS_14bg_palette_ptrEi
                0x00000000       0xcc bn_bg_blocks_manager.o
 .text._ZNK2bn18affine_bg_map_item23create_new_map_optionalENS_19affine_bg_tiles_ptrENS_14bg_palette_ptrEi
                0x00000000       0xd8 bn_bg_blocks_manager.o
 .text._ZN2bn17bg_blocks_manager12_GLOBAL__N_1L14_allocate_implEONS1_11create_dataE
                0x00000000       0xec bn_bg_blocks_manager.o
 .rodata._ZN2bn17bg_blocks_manager22allocate_regular_tilesEiNS_8bpp_modeEb.str1.4
                0x00000000       0x85 bn_bg_blocks_manager.o
 .text._ZN2bn17bg_blocks_manager22allocate_regular_tilesEiNS_8bpp_modeEb
                0x00000000      0x148 bn_bg_blocks_manager.o
 .text._ZN2bn20regular_bg_tiles_ptr8allocateEiNS_8bpp_modeE
                0x00000000       0x18 bn_bg_blocks_manager.o
 .text._ZN2bn20regular_bg_tiles_ptr17allocate_optionalEiNS_8bpp_modeE
                0x00000000       0x28 bn_bg_blocks_manager.o
 .rodata._ZN2bn17bg_blocks_manager21allocate_affine_tilesEib.str1.4
                0x00000000       0x80 bn_bg_blocks_manager.o
 .text._ZN2bn17bg_blocks_manager21allocate_affine_tilesEib
                0x00000000      0x120 bn_bg_blocks_manager.o
 .text._ZN2bn19affine_bg_tiles_ptr8allocateEi
                0x00000000       0x18 bn_bg_blocks_manager.o
 .text._ZN2bn19affine_bg_tiles_ptr17allocate_optionalEi
                0x00000000       0x24 bn_bg_blocks_manager.o
 .rodata._ZN2bn17bg_blocks_manager25allocate_all_affine_tilesEb.str1.4
                0x00000000       0x51 bn_bg_blocks_manager.o
 .text._ZN2bn17bg_blocks_manager25allocate_all_affine_tilesEb
                0x00000000       0xb8 bn_bg_blocks_manager.o
 .rodata._ZN2bn17bg_blocks_manager20allocate_regular_mapERKNS_4sizeEONS_20regular_bg_tiles_ptrEONS_14bg_palette_ptrEb.str1.4
                0x00000000       0xe4 bn_bg_blocks_manager.o
 .text._ZN2bn17bg_blocks_manager20allocate_regular_mapERKNS_4sizeEONS_20regular_bg_tiles_ptrEONS_14bg_palette_ptrEb
                0x00000000      0x2a0 bn_bg_blocks_manager.o
 .text._ZN2bn18regular_bg_map_ptr8allocateERKNS_4sizeENS_20regular_bg_tiles_ptrENS_14bg_palette_ptrE
                0x00000000       0x1c bn_bg_blocks_manager.o
 .text._ZN2bn18regular_bg_map_ptr17allocate_optionalERKNS_4sizeENS_20regular_bg_tiles_ptrENS_14bg_palette_ptrE
                0x00000000       0x28 bn_bg_blocks_manager.o
 .rodata._ZN2bn17bg_blocks_manager19allocate_affine_mapERKNS_4sizeEONS_19affine_bg_tiles_ptrEONS_14bg_palette_ptrEb.str1.4
                0x00000000      0x113 bn_bg_blocks_manager.o
 .text._ZN2bn17bg_blocks_manager19allocate_affine_mapERKNS_4sizeEONS_19affine_bg_tiles_ptrEONS_14bg_palette_ptrEb
                0x00000000      0x1ec bn_bg_blocks_manager.o
 .text._ZN2bn17affine_bg_map_ptr8allocateERKNS_4sizeENS_19affine_bg_tiles_ptrENS_14bg_palette_ptrE
                0x00000000       0x1c bn_bg_blocks_manager.o
 .text._ZN2bn17affine_bg_map_ptr17allocate_optionalERKNS_4sizeENS_19affine_bg_tiles_ptrENS_14bg_palette_ptrE
                0x00000000       0x28 bn_bg_blocks_manager.o
 .text._ZNK2bn18regular_bg_map_ptr9cells_refEv
                0x00000000       0x38 bn_bg_blocks_manager.o
 .text._ZN2bn17bg_blocks_manager16regular_map_vramEi
                0x00000000       0x3c bn_bg_blocks_manager.o
 .text._ZN2bn18regular_bg_map_ptr4vramEv
                0x00000000       0x18 bn_bg_blocks_manager.o
 .text._ZNK2bn17affine_bg_map_ptr9cells_refEv
                0x00000000       0x34 bn_bg_blocks_manager.o
 .text._ZN2bn17bg_blocks_manager15affine_map_vramEi
                0x00000000       0x38 bn_bg_blocks_manager.o
 .text._ZN2bn17affine_bg_map_ptr4vramEv
                0x00000000       0x18 bn_bg_blocks_manager.o
 .text._ZN2bn17bg_blocks_manager10tiles_vramEi
                0x00000000       0x38 bn_bg_blocks_manager.o
 .text._ZN2bn20regular_bg_tiles_ptr4vramEv
                0x00000000       0x18 bn_bg_blocks_manager.o
 .text._ZN2bn19affine_bg_tiles_ptr4vramEv
                0x00000000       0x18 bn_bg_blocks_manager.o
 .rodata._ZNK2bn17affine_bg_map_ptr4vramEv.str1.4
                0x00000000       0x27 bn_bg_blocks_manager.o
 .text._ZNK2bn17affine_bg_map_ptr4vramEv
                0x00000000       0x88 bn_bg_blocks_manager.o
 .text._ZN2bn17bg_blocks_manager20affine_map_cells_refEi
                0x00000000       0x2c bn_bg_blocks_manager.o
 .text._ZNK2bn18regular_bg_map_ptr4vramEv
                0x00000000       0x8c bn_bg_blocks_manager.o
 .text._ZN2bn17bg_blocks_manager21regular_map_cells_refEi
                0x00000000       0x30 bn_bg_blocks_manager.o
 .text._ZNK2bn20regular_bg_tiles_ptr4vramEv
                0x00000000       0x8c bn_bg_blocks_manager.o
 .text._ZNK2bn19affine_bg_tiles_ptr4vramEv
                0x00000000       0x8c bn_bg_blocks_manager.o
 .text._ZN2bn17bg_blocks_manager9tiles_refEi
                0x00000000       0x2c bn_bg_blocks_manager.o
 .text._ZNK2bn20regular_bg_tiles_ptr9tiles_refEv
                0x00000000       0x30 bn_bg_blocks_manager.o
 .text._ZNK2bn19affine_bg_tiles_ptr9tiles_refEv
                0x00000000       0x30 bn_bg_blocks_manager.o
 .rodata._ZNK2bn20affine_bg_tiles_item10decompressENS_4spanINS_4tileEEE.str1.4
                0x00000000       0x54 bn_bg_blocks_manager.o
 .text._ZNK2bn20affine_bg_tiles_item10decompressENS_4spanINS_4tileEEE
                0x00000000      0x138 bn_bg_blocks_manager.o
 .rodata._ZNK2bn21regular_bg_tiles_item10decompressENS_4spanINS_4tileEEE.str1.4
                0x00000000       0x1f bn_bg_blocks_manager.o
 .text._ZNK2bn21regular_bg_tiles_item10decompressENS_4spanINS_4tileEEE
                0x00000000      0x138 bn_bg_blocks_manager.o
 .group         0x00000000        0xc bn_bgs_manager.o
 .group         0x00000000        0xc bn_bgs_manager.o
 .group         0x00000000        0xc bn_bgs_manager.o
 .group         0x00000000        0xc bn_bgs_manager.o
 .group         0x00000000        0xc bn_bgs_manager.o
 .group         0x00000000        0xc bn_bgs_manager.o
 .group         0x00000000        0xc bn_bgs_manager.o
 .group         0x00000000        0xc bn_bgs_manager.o
 .group         0x00000000        0xc bn_bgs_manager.o
 .group         0x00000000        0xc bn_bgs_manager.o
 .group         0x00000000        0xc bn_bgs_manager.o
 .group         0x00000000        0xc bn_bgs_manager.o
 .group         0x00000000        0xc bn_bgs_manager.o
 .group         0x00000000        0xc bn_bgs_manager.o
 .group         0x00000000        0xc bn_bgs_manager.o
 .group         0x00000000        0xc bn_bgs_manager.o
 .group         0x00000000        0xc bn_bgs_manager.o
 .group         0x00000000        0xc bn_bgs_manager.o
 .group         0x00000000        0xc bn_bgs_manager.o
 .group         0x00000000        0xc bn_bgs_manager.o
 .group         0x00000000        0xc bn_bgs_manager.o
 .group         0x00000000        0xc bn_bgs_manager.o
 .group         0x00000000        0xc bn_bgs_manager.o
 .group         0x00000000        0xc bn_bgs_manager.o
 .group         0x00000000        0xc bn_bgs_manager.o
 .group         0x00000000        0xc bn_bgs_manager.o
 .group         0x00000000        0xc bn_bgs_manager.o
 .group         0x00000000        0xc bn_bgs_manager.o
 .group         0x00000000        0xc bn_bgs_manager.o
 .group         0x00000000        0xc bn_bgs_manager.o
 .text          0x00000000        0x0 bn_bgs_manager.o
 .data          0x00000000        0x0 bn_bgs_manager.o
 .bss           0x00000000        0x0 bn_bgs_manager.o
 .text._ZN2bn11bgs_manager12_GLOBAL__N_1L28_check_unique_affine_big_mapERNS1_9item_typeE
                0x00000000       0x6c bn_bgs_manager.o
 .text._ZN2bn13ostringstream11append_argsIiJA4_ciEEEvRKT_DpRKT0_.isra.0
                0x00000000       0x24 bn_bgs_manager.o
 .text._ZN2bn3bgs16used_items_countEv
                0x00000000       0x10 bn_bgs_manager.o
 .text._ZN2bn3bgs21available_items_countEv
                0x00000000       0x14 bn_bgs_manager.o
 .text._ZN2bn13affine_bg_ptrC2ERKS0_
                0x00000000        0xc bn_bgs_manager.o
 .text._ZNK2bn13affine_bg_ptr3bigEv
                0x00000000        0xc bn_bgs_manager.o
 .text._ZNK2bn13affine_bg_ptr1xEv
                0x00000000        0x8 bn_bgs_manager.o
 .text._ZN2bn13affine_bg_ptr5set_xENS_7fixed_tILi12EEE
                0x00000000       0x84 bn_bgs_manager.o
 .text._ZNK2bn13affine_bg_ptr1yEv
                0x00000000        0x8 bn_bgs_manager.o
 .text._ZN2bn13affine_bg_ptr5set_yENS_7fixed_tILi12EEE
                0x00000000       0x84 bn_bgs_manager.o
 .text._ZNK2bn13affine_bg_ptr8positionEv
                0x00000000        0x8 bn_bgs_manager.o
 .text._ZNK2bn13affine_bg_ptr14rotation_angleEv
                0x00000000        0x8 bn_bgs_manager.o
 .text._ZNK2bn13affine_bg_ptr16horizontal_scaleEv
                0x00000000        0x8 bn_bgs_manager.o
 .text._ZNK2bn13affine_bg_ptr14vertical_scaleEv
                0x00000000        0x8 bn_bgs_manager.o
 .text._ZNK2bn13affine_bg_ptr16horizontal_shearEv
                0x00000000        0x8 bn_bgs_manager.o
 .text._ZN2bn13affine_bg_ptr20set_horizontal_shearENS_7fixed_tILi12EEE
                0x00000000       0xb0 bn_bgs_manager.o
 .text._ZNK2bn13affine_bg_ptr14vertical_shearEv
                0x00000000        0x8 bn_bgs_manager.o
 .text._ZN2bn13affine_bg_ptr18set_vertical_shearENS_7fixed_tILi12EEE
                0x00000000       0xa4 bn_bgs_manager.o
 .text._ZNK2bn13affine_bg_ptr15horizontal_flipEv
                0x00000000        0xc bn_bgs_manager.o
 .text._ZNK2bn13affine_bg_ptr13vertical_flipEv
                0x00000000        0xc bn_bgs_manager.o
 .text._ZNK2bn13affine_bg_ptr7pivot_xEv
                0x00000000        0x8 bn_bgs_manager.o
 .text._ZN2bn13affine_bg_ptr11set_pivot_xENS_7fixed_tILi12EEE
                0x00000000       0x54 bn_bgs_manager.o
 .text._ZNK2bn13affine_bg_ptr7pivot_yEv
                0x00000000        0x8 bn_bgs_manager.o
 .text._ZN2bn13affine_bg_ptr11set_pivot_yENS_7fixed_tILi12EEE
                0x00000000       0x54 bn_bgs_manager.o
 .text._ZNK2bn13affine_bg_ptr14pivot_positionEv
                0x00000000        0x8 bn_bgs_manager.o
 .text._ZN2bn13affine_bg_ptr18set_pivot_positionENS_7fixed_tILi12EEES2_
                0x00000000       0x90 bn_bgs_manager.o
 .text._ZN2bn13affine_bg_ptr18set_pivot_positionERKNS_13fixed_point_tILi12EEE
                0x00000000       0x90 bn_bgs_manager.o
 .text._ZNK2bn13affine_bg_ptr14mat_attributesEv
                0x00000000        0x8 bn_bgs_manager.o
 .text._ZNK2bn13affine_bg_ptr8priorityEv
                0x00000000        0x8 bn_bgs_manager.o
 .text._ZNK2bn13affine_bg_ptr7z_orderEv
                0x00000000       0x10 bn_bgs_manager.o
 .text._ZNK2bn13affine_bg_ptr16wrapping_enabledEv
                0x00000000        0xc bn_bgs_manager.o
 .text._ZN2bn13affine_bg_ptr20set_wrapping_enabledEb
                0x00000000       0x50 bn_bgs_manager.o
 .text._ZNK2bn13affine_bg_ptr14mosaic_enabledEv
                0x00000000        0xc bn_bgs_manager.o
 .text._ZN2bn13affine_bg_ptr18set_mosaic_enabledEb
                0x00000000       0x4c bn_bgs_manager.o
 .text._ZNK2bn13affine_bg_ptr20blending_top_enabledEv
                0x00000000        0xc bn_bgs_manager.o
 .text._ZN2bn13affine_bg_ptr24set_blending_top_enabledEb
                0x00000000       0x40 bn_bgs_manager.o
 .text._ZNK2bn13affine_bg_ptr23blending_bottom_enabledEv
                0x00000000        0xc bn_bgs_manager.o
 .text._ZN2bn13affine_bg_ptr27set_blending_bottom_enabledEb
                0x00000000       0x44 bn_bgs_manager.o
 .text._ZNK2bn13affine_bg_ptr15green_swap_modeEv
                0x00000000        0xc bn_bgs_manager.o
 .text._ZN2bn13affine_bg_ptr19set_green_swap_modeENS_15green_swap_modeE
                0x00000000       0x48 bn_bgs_manager.o
 .text._ZNK2bn13affine_bg_ptr7visibleEv
                0x00000000        0xc bn_bgs_manager.o
 .text._ZN2bn13affine_bg_ptr11set_visibleEb
                0x00000000       0x38 bn_bgs_manager.o
 .text._ZNK2bn13affine_bg_ptr17visible_in_windowERKNS_6windowE
                0x00000000       0x14 bn_bgs_manager.o
 .text._ZN2bn13affine_bg_ptr21set_visible_in_windowEbRNS_6windowE
                0x00000000       0x14 bn_bgs_manager.o
 .text._ZNK2bn13affine_bg_ptr6cameraEv
                0x00000000        0x8 bn_bgs_manager.o
 .text._ZNK2bn14affine_bg_item10decompressENS_4spanINS_4tileEEENS1_INS_5colorEEENS1_IhEE
                0x00000000       0x68 bn_bgs_manager.o
 .text._ZNK2bn14affine_bg_item8find_mapEv
                0x00000000       0x10 bn_bgs_manager.o
 .text._ZNK2bn14affine_bg_item8find_mapEi
                0x00000000       0x10 bn_bgs_manager.o
 .text._ZNK2bn14affine_bg_item10create_mapEv
                0x00000000       0x10 bn_bgs_manager.o
 .text._ZNK2bn14affine_bg_item10create_mapEi
                0x00000000       0x10 bn_bgs_manager.o
 .text._ZNK2bn14affine_bg_item14create_new_mapEv
                0x00000000       0x10 bn_bgs_manager.o
 .text._ZNK2bn14affine_bg_item14create_new_mapEi
                0x00000000       0x10 bn_bgs_manager.o
 .text._ZNK2bn14affine_bg_item19create_map_optionalEv
                0x00000000       0x10 bn_bgs_manager.o
 .text._ZNK2bn14affine_bg_item19create_map_optionalEi
                0x00000000       0x10 bn_bgs_manager.o
 .text._ZNK2bn14affine_bg_item23create_new_map_optionalEv
                0x00000000       0x10 bn_bgs_manager.o
 .text._ZNK2bn14affine_bg_item23create_new_map_optionalEi
                0x00000000       0x10 bn_bgs_manager.o
 .text._ZN2bn17affine_bg_builder14release_cameraEv
                0x00000000       0x30 bn_bgs_manager.o
 .text._ZNK2bn17affine_bg_builder12map_optionalEv
                0x00000000       0x8c bn_bgs_manager.o
 .text._ZN2bn17affine_bg_builder20release_map_optionalEv
                0x00000000       0xa4 bn_bgs_manager.o
 .text._ZN2bn14regular_bg_ptrC2ERKS0_
                0x00000000        0xc bn_bgs_manager.o
 .text._ZNK2bn14regular_bg_ptr3bigEv
                0x00000000        0xc bn_bgs_manager.o
 .text._ZNK2bn14regular_bg_ptr1xEv
                0x00000000        0x8 bn_bgs_manager.o
 .text._ZN2bn14regular_bg_ptr5set_xENS_7fixed_tILi12EEE
                0x00000000       0x64 bn_bgs_manager.o
 .text._ZNK2bn14regular_bg_ptr1yEv
                0x00000000        0x8 bn_bgs_manager.o
 .text._ZN2bn14regular_bg_ptr5set_yENS_7fixed_tILi12EEE
                0x00000000       0x64 bn_bgs_manager.o
 .text._ZNK2bn14regular_bg_ptr8positionEv
                0x00000000        0x8 bn_bgs_manager.o
 .text._ZN2bn14regular_bg_ptr12set_positionENS_7fixed_tILi12EEES2_
                0x00000000       0x74 bn_bgs_manager.o
 .text._ZN2bn14regular_bg_ptr12set_positionERKNS_13fixed_point_tILi12EEE
                0x00000000       0x80 bn_bgs_manager.o
 .text._ZNK2bn14regular_bg_ptr8priorityEv
                0x00000000        0x8 bn_bgs_manager.o
 .text._ZNK2bn14regular_bg_ptr7z_orderEv
                0x00000000       0x10 bn_bgs_manager.o
 .text._ZNK2bn14regular_bg_ptr14mosaic_enabledEv
                0x00000000        0xc bn_bgs_manager.o
 .text._ZN2bn14regular_bg_ptr18set_mosaic_enabledEb
                0x00000000       0x4c bn_bgs_manager.o
 .text._ZNK2bn14regular_bg_ptr20blending_top_enabledEv
                0x00000000        0xc bn_bgs_manager.o
 .text._ZN2bn14regular_bg_ptr24set_blending_top_enabledEb
                0x00000000       0x40 bn_bgs_manager.o
 .text._ZNK2bn14regular_bg_ptr23blending_bottom_enabledEv
                0x00000000        0xc bn_bgs_manager.o
 .text._ZN2bn14regular_bg_ptr27set_blending_bottom_enabledEb
                0x00000000       0x44 bn_bgs_manager.o
 .text._ZNK2bn14regular_bg_ptr15green_swap_modeEv
                0x00000000        0xc bn_bgs_manager.o
 .text._ZN2bn14regular_bg_ptr19set_green_swap_modeENS_15green_swap_modeE
                0x00000000       0x48 bn_bgs_manager.o
 .text._ZNK2bn14regular_bg_ptr7visibleEv
                0x00000000        0xc bn_bgs_manager.o
 .text._ZN2bn14regular_bg_ptr11set_visibleEb
                0x00000000       0x38 bn_bgs_manager.o
 .text._ZNK2bn14regular_bg_ptr17visible_in_windowERKNS_6windowE
                0x00000000       0x14 bn_bgs_manager.o
 .text._ZN2bn14regular_bg_ptr21set_visible_in_windowEbRNS_6windowE
                0x00000000       0x14 bn_bgs_manager.o
 .text._ZNK2bn14regular_bg_ptr6cameraEv
                0x00000000        0x8 bn_bgs_manager.o
 .text._ZNK2bn15regular_bg_item10decompressENS_4spanINS_4tileEEENS1_INS_5colorEEENS1_ItEE
                0x00000000       0x68 bn_bgs_manager.o
 .text._ZNK2bn15regular_bg_item8find_mapEv
                0x00000000       0x10 bn_bgs_manager.o
 .text._ZNK2bn15regular_bg_item8find_mapEi
                0x00000000       0x10 bn_bgs_manager.o
 .text._ZNK2bn15regular_bg_item10create_mapEv
                0x00000000       0x10 bn_bgs_manager.o
 .text._ZNK2bn15regular_bg_item10create_mapEi
                0x00000000       0x10 bn_bgs_manager.o
 .text._ZNK2bn15regular_bg_item14create_new_mapEv
                0x00000000       0x10 bn_bgs_manager.o
 .text._ZNK2bn15regular_bg_item14create_new_mapEi
                0x00000000       0x10 bn_bgs_manager.o
 .text._ZNK2bn15regular_bg_item19create_map_optionalEv
                0x00000000       0x10 bn_bgs_manager.o
 .text._ZNK2bn15regular_bg_item19create_map_optionalEi
                0x00000000       0x10 bn_bgs_manager.o
 .text._ZNK2bn15regular_bg_item23create_new_map_optionalEv
                0x00000000       0x10 bn_bgs_manager.o
 .text._ZNK2bn15regular_bg_item23create_new_map_optionalEi
                0x00000000       0x10 bn_bgs_manager.o
 .text._ZN2bn18regular_bg_builder14release_cameraEv
                0x00000000       0x30 bn_bgs_manager.o
 .text._ZNK2bn18regular_bg_builder12map_optionalEv
                0x00000000       0x80 bn_bgs_manager.o
 .text._ZN2bn18regular_bg_builder20release_map_optionalEv
                0x00000000       0x9c bn_bgs_manager.o
 .text._ZN2bn21palette_bitmap_bg_ptr10dimensionsEv
                0x00000000       0x14 bn_bgs_manager.o
 .text._ZN2bn21palette_bitmap_bg_ptrC2ERKS0_
                0x00000000        0xc bn_bgs_manager.o
 .text._ZN2bn21palette_bitmap_bg_ptr15flip_page_laterEv
                0x00000000        0xc bn_bgs_manager.o
 .text._ZN2bn21palette_bitmap_bg_ptr13flip_page_nowEv
                0x00000000        0xc bn_bgs_manager.o
 .text._ZNK2bn21palette_bitmap_bg_ptr1xEv
                0x00000000        0x8 bn_bgs_manager.o
 .text._ZN2bn21palette_bitmap_bg_ptr5set_xENS_7fixed_tILi12EEE
                0x00000000       0x84 bn_bgs_manager.o
 .text._ZNK2bn21palette_bitmap_bg_ptr1yEv
                0x00000000        0x8 bn_bgs_manager.o
 .text._ZN2bn21palette_bitmap_bg_ptr5set_yENS_7fixed_tILi12EEE
                0x00000000       0x84 bn_bgs_manager.o
 .text._ZNK2bn21palette_bitmap_bg_ptr8positionEv
                0x00000000        0x8 bn_bgs_manager.o
 .text._ZNK2bn21palette_bitmap_bg_ptr10top_left_xEv
                0x00000000        0x8 bn_bgs_manager.o
 .text._ZNK2bn21palette_bitmap_bg_ptr10top_left_yEv
                0x00000000        0x8 bn_bgs_manager.o
 .text._ZNK2bn21palette_bitmap_bg_ptr17top_left_positionEv
                0x00000000        0xc bn_bgs_manager.o
 .text._ZNK2bn21palette_bitmap_bg_ptr14rotation_angleEv
                0x00000000        0x8 bn_bgs_manager.o
 .text._ZNK2bn21palette_bitmap_bg_ptr16horizontal_scaleEv
                0x00000000        0x8 bn_bgs_manager.o
 .text._ZNK2bn21palette_bitmap_bg_ptr14vertical_scaleEv
                0x00000000        0x8 bn_bgs_manager.o
 .text._ZNK2bn21palette_bitmap_bg_ptr16horizontal_shearEv
                0x00000000        0x8 bn_bgs_manager.o
 .text._ZN2bn21palette_bitmap_bg_ptr20set_horizontal_shearENS_7fixed_tILi12EEE
                0x00000000       0xb0 bn_bgs_manager.o
 .text._ZNK2bn21palette_bitmap_bg_ptr14vertical_shearEv
                0x00000000        0x8 bn_bgs_manager.o
 .text._ZN2bn21palette_bitmap_bg_ptr18set_vertical_shearENS_7fixed_tILi12EEE
                0x00000000       0xa4 bn_bgs_manager.o
 .text._ZNK2bn21palette_bitmap_bg_ptr15horizontal_flipEv
                0x00000000        0xc bn_bgs_manager.o
 .text._ZNK2bn21palette_bitmap_bg_ptr13vertical_flipEv
                0x00000000        0xc bn_bgs_manager.o
 .text._ZNK2bn21palette_bitmap_bg_ptr7pivot_xEv
                0x00000000        0x8 bn_bgs_manager.o
 .text._ZN2bn21palette_bitmap_bg_ptr11set_pivot_xENS_7fixed_tILi12EEE
                0x00000000       0x54 bn_bgs_manager.o
 .text._ZNK2bn21palette_bitmap_bg_ptr7pivot_yEv
                0x00000000        0x8 bn_bgs_manager.o
 .text._ZN2bn21palette_bitmap_bg_ptr11set_pivot_yENS_7fixed_tILi12EEE
                0x00000000       0x54 bn_bgs_manager.o
 .text._ZNK2bn21palette_bitmap_bg_ptr14pivot_positionEv
                0x00000000        0x8 bn_bgs_manager.o
 .text._ZN2bn21palette_bitmap_bg_ptr18set_pivot_positionENS_7fixed_tILi12EEES2_
                0x00000000       0x90 bn_bgs_manager.o
 .text._ZN2bn21palette_bitmap_bg_ptr18set_pivot_positionERKNS_13fixed_point_tILi12EEE
                0x00000000       0x90 bn_bgs_manager.o
 .text._ZNK2bn21palette_bitmap_bg_ptr14mat_attributesEv
                0x00000000        0x8 bn_bgs_manager.o
 .text._ZNK2bn21palette_bitmap_bg_ptr8priorityEv
                0x00000000        0x8 bn_bgs_manager.o
 .text._ZNK2bn21palette_bitmap_bg_ptr14mosaic_enabledEv
                0x00000000        0xc bn_bgs_manager.o
 .text._ZN2bn21palette_bitmap_bg_ptr18set_mosaic_enabledEb
                0x00000000       0x4c bn_bgs_manager.o
 .text._ZNK2bn21palette_bitmap_bg_ptr20blending_top_enabledEv
                0x00000000        0xc bn_bgs_manager.o
 .text._ZN2bn21palette_bitmap_bg_ptr24set_blending_top_enabledEb
                0x00000000       0x40 bn_bgs_manager.o
 .text._ZNK2bn21palette_bitmap_bg_ptr23blending_bottom_enabledEv
                0x00000000        0xc bn_bgs_manager.o
 .text._ZN2bn21palette_bitmap_bg_ptr27set_blending_bottom_enabledEb
                0x00000000       0x44 bn_bgs_manager.o
 .text._ZNK2bn21palette_bitmap_bg_ptr15green_swap_modeEv
                0x00000000        0xc bn_bgs_manager.o
 .text._ZN2bn21palette_bitmap_bg_ptr19set_green_swap_modeENS_15green_swap_modeE
                0x00000000       0x48 bn_bgs_manager.o
 .text._ZNK2bn21palette_bitmap_bg_ptr7visibleEv
                0x00000000        0xc bn_bgs_manager.o
 .text._ZN2bn21palette_bitmap_bg_ptr11set_visibleEb
                0x00000000       0x38 bn_bgs_manager.o
 .text._ZNK2bn21palette_bitmap_bg_ptr17visible_in_windowERKNS_6windowE
                0x00000000       0x14 bn_bgs_manager.o
 .text._ZN2bn21palette_bitmap_bg_ptr21set_visible_in_windowEbRNS_6windowE
                0x00000000       0x14 bn_bgs_manager.o
 .text._ZNK2bn21palette_bitmap_bg_ptr6cameraEv
                0x00000000        0x8 bn_bgs_manager.o
 .text._ZNK2bn25palette_bitmap_bg_builder10top_left_xEv
                0x00000000        0x4 bn_bgs_manager.o
 .text._ZN2bn25palette_bitmap_bg_builder14set_top_left_xENS_7fixed_tILi12EEE
                0x00000000        0x4 bn_bgs_manager.o
 .text._ZNK2bn25palette_bitmap_bg_builder10top_left_yEv
                0x00000000        0x4 bn_bgs_manager.o
 .text._ZN2bn25palette_bitmap_bg_builder14set_top_left_yENS_7fixed_tILi12EEE
                0x00000000        0x4 bn_bgs_manager.o
 .text._ZNK2bn25palette_bitmap_bg_builder17top_left_positionEv
                0x00000000        0xc bn_bgs_manager.o
 .text._ZN2bn25palette_bitmap_bg_builder21set_top_left_positionENS_7fixed_tILi12EEES2_
                0x00000000        0x8 bn_bgs_manager.o
 .text._ZN2bn25palette_bitmap_bg_builder21set_top_left_positionERKNS_13fixed_point_tILi12EEE
                0x00000000        0x8 bn_bgs_manager.o
 .text._ZN2bn25palette_bitmap_bg_builder14release_cameraEv
                0x00000000       0x30 bn_bgs_manager.o
 .text._ZNK2bn25palette_bitmap_bg_builder16palette_optionalEv
                0x00000000       0x84 bn_bgs_manager.o
 .text._ZN2bn25palette_bitmap_bg_builder24release_palette_optionalEv
                0x00000000       0x9c bn_bgs_manager.o
 .text._ZN2bn25palette_bitmap_bg_painterC2ERKNS_21palette_bitmap_bg_ptrE
                0x00000000       0x24 bn_bgs_manager.o
 .text._ZN2bn25palette_bitmap_bg_painterC2EONS_21palette_bitmap_bg_ptrE
                0x00000000       0x20 bn_bgs_manager.o
 .text._ZN2bn25palette_bitmap_bg_painterC2EOS0_
                0x00000000       0x24 bn_bgs_manager.o
 .text._ZN2bn25palette_bitmap_bg_painteraSEOS0_
                0x00000000       0x2c bn_bgs_manager.o
 .text._ZN2bn23sp_direct_bitmap_bg_ptr10dimensionsEv
                0x00000000       0x14 bn_bgs_manager.o
 .text._ZN2bn23sp_direct_bitmap_bg_ptrC2ERKS0_
                0x00000000        0xc bn_bgs_manager.o
 .text._ZNK2bn23sp_direct_bitmap_bg_ptr4pageEv
                0x00000000       0x10 bn_bgs_manager.o
 .text._ZN2bn23sp_direct_bitmap_bg_ptr4pageEv
                0x00000000       0x10 bn_bgs_manager.o
 .text._ZNK2bn23sp_direct_bitmap_bg_ptr1xEv
                0x00000000        0x8 bn_bgs_manager.o
 .text._ZN2bn23sp_direct_bitmap_bg_ptr5set_xENS_7fixed_tILi12EEE
                0x00000000       0x84 bn_bgs_manager.o
 .text._ZNK2bn23sp_direct_bitmap_bg_ptr1yEv
                0x00000000        0x8 bn_bgs_manager.o
 .text._ZN2bn23sp_direct_bitmap_bg_ptr5set_yENS_7fixed_tILi12EEE
                0x00000000       0x84 bn_bgs_manager.o
 .text._ZNK2bn23sp_direct_bitmap_bg_ptr8positionEv
                0x00000000        0x8 bn_bgs_manager.o
 .text._ZNK2bn23sp_direct_bitmap_bg_ptr10top_left_xEv
                0x00000000        0x8 bn_bgs_manager.o
 .text._ZNK2bn23sp_direct_bitmap_bg_ptr10top_left_yEv
                0x00000000        0x8 bn_bgs_manager.o
 .text._ZNK2bn23sp_direct_bitmap_bg_ptr17top_left_positionEv
                0x00000000        0xc bn_bgs_manager.o
 .text._ZNK2bn23sp_direct_bitmap_bg_ptr14rotation_angleEv
                0x00000000        0x8 bn_bgs_manager.o
 .text._ZNK2bn23sp_direct_bitmap_bg_ptr16horizontal_scaleEv
                0x00000000        0x8 bn_bgs_manager.o
 .text._ZNK2bn23sp_direct_bitmap_bg_ptr14vertical_scaleEv
                0x00000000        0x8 bn_bgs_manager.o
 .text._ZNK2bn23sp_direct_bitmap_bg_ptr16horizontal_shearEv
                0x00000000        0x8 bn_bgs_manager.o
 .text._ZN2bn23sp_direct_bitmap_bg_ptr20set_horizontal_shearENS_7fixed_tILi12EEE
                0x00000000       0xb0 bn_bgs_manager.o
 .text._ZNK2bn23sp_direct_bitmap_bg_ptr14vertical_shearEv
                0x00000000        0x8 bn_bgs_manager.o
 .text._ZN2bn23sp_direct_bitmap_bg_ptr18set_vertical_shearENS_7fixed_tILi12EEE
                0x00000000       0xa4 bn_bgs_manager.o
 .text._ZNK2bn23sp_direct_bitmap_bg_ptr15horizontal_flipEv
                0x00000000        0xc bn_bgs_manager.o
 .text._ZNK2bn23sp_direct_bitmap_bg_ptr13vertical_flipEv
                0x00000000        0xc bn_bgs_manager.o
 .text._ZNK2bn23sp_direct_bitmap_bg_ptr7pivot_xEv
                0x00000000        0x8 bn_bgs_manager.o
 .text._ZN2bn23sp_direct_bitmap_bg_ptr11set_pivot_xENS_7fixed_tILi12EEE
                0x00000000       0x54 bn_bgs_manager.o
 .text._ZNK2bn23sp_direct_bitmap_bg_ptr7pivot_yEv
                0x00000000        0x8 bn_bgs_manager.o
 .text._ZN2bn23sp_direct_bitmap_bg_ptr11set_pivot_yENS_7fixed_tILi12EEE
                0x00000000       0x54 bn_bgs_manager.o
 .text._ZNK2bn23sp_direct_bitmap_bg_ptr14pivot_positionEv
                0x00000000        0x8 bn_bgs_manager.o
 .text._ZN2bn23sp_direct_bitmap_bg_ptr18set_pivot_positionENS_7fixed_tILi12EEES2_
                0x00000000       0x90 bn_bgs_manager.o
 .text._ZN2bn23sp_direct_bitmap_bg_ptr18set_pivot_positionERKNS_13fixed_point_tILi12EEE
                0x00000000       0x90 bn_bgs_manager.o
 .text._ZNK2bn23sp_direct_bitmap_bg_ptr14mat_attributesEv
                0x00000000        0x8 bn_bgs_manager.o
 .text._ZNK2bn23sp_direct_bitmap_bg_ptr8priorityEv
                0x00000000        0x8 bn_bgs_manager.o
 .text._ZNK2bn23sp_direct_bitmap_bg_ptr14mosaic_enabledEv
                0x00000000        0xc bn_bgs_manager.o
 .text._ZN2bn23sp_direct_bitmap_bg_ptr18set_mosaic_enabledEb
                0x00000000       0x4c bn_bgs_manager.o
 .text._ZNK2bn23sp_direct_bitmap_bg_ptr20blending_top_enabledEv
                0x00000000        0xc bn_bgs_manager.o
 .text._ZN2bn23sp_direct_bitmap_bg_ptr24set_blending_top_enabledEb
                0x00000000       0x40 bn_bgs_manager.o
 .text._ZNK2bn23sp_direct_bitmap_bg_ptr23blending_bottom_enabledEv
                0x00000000        0xc bn_bgs_manager.o
 .text._ZN2bn23sp_direct_bitmap_bg_ptr27set_blending_bottom_enabledEb
                0x00000000       0x44 bn_bgs_manager.o
 .text._ZNK2bn23sp_direct_bitmap_bg_ptr15green_swap_modeEv
                0x00000000        0xc bn_bgs_manager.o
 .text._ZN2bn23sp_direct_bitmap_bg_ptr19set_green_swap_modeENS_15green_swap_modeE
                0x00000000       0x48 bn_bgs_manager.o
 .text._ZNK2bn23sp_direct_bitmap_bg_ptr7visibleEv
                0x00000000        0xc bn_bgs_manager.o
 .text._ZN2bn23sp_direct_bitmap_bg_ptr11set_visibleEb
                0x00000000       0x38 bn_bgs_manager.o
 .text._ZNK2bn23sp_direct_bitmap_bg_ptr17visible_in_windowERKNS_6windowE
                0x00000000       0x14 bn_bgs_manager.o
 .text._ZN2bn23sp_direct_bitmap_bg_ptr21set_visible_in_windowEbRNS_6windowE
                0x00000000       0x14 bn_bgs_manager.o
 .text._ZNK2bn23sp_direct_bitmap_bg_ptr6cameraEv
                0x00000000        0x8 bn_bgs_manager.o
 .text._ZNK2bn27sp_direct_bitmap_bg_builder10top_left_xEv
                0x00000000        0x4 bn_bgs_manager.o
 .text._ZN2bn27sp_direct_bitmap_bg_builder14set_top_left_xENS_7fixed_tILi12EEE
                0x00000000        0x4 bn_bgs_manager.o
 .text._ZNK2bn27sp_direct_bitmap_bg_builder10top_left_yEv
                0x00000000        0x4 bn_bgs_manager.o
 .text._ZN2bn27sp_direct_bitmap_bg_builder14set_top_left_yENS_7fixed_tILi12EEE
                0x00000000        0x4 bn_bgs_manager.o
 .text._ZNK2bn27sp_direct_bitmap_bg_builder17top_left_positionEv
                0x00000000        0xc bn_bgs_manager.o
 .text._ZN2bn27sp_direct_bitmap_bg_builder21set_top_left_positionENS_7fixed_tILi12EEES2_
                0x00000000        0x8 bn_bgs_manager.o
 .text._ZN2bn27sp_direct_bitmap_bg_builder21set_top_left_positionERKNS_13fixed_point_tILi12EEE
                0x00000000        0x8 bn_bgs_manager.o
 .text._ZN2bn27sp_direct_bitmap_bg_builder6expandEv
                0x00000000       0x64 bn_bgs_manager.o
 .text._ZN2bn27sp_direct_bitmap_bg_builder14release_cameraEv
                0x00000000       0x30 bn_bgs_manager.o
 .text._ZN2bn23dp_direct_bitmap_bg_ptr10dimensionsEv
                0x00000000       0x14 bn_bgs_manager.o
 .text._ZN2bn23dp_direct_bitmap_bg_ptrC2ERKS0_
                0x00000000        0xc bn_bgs_manager.o
 .text._ZN2bn23dp_direct_bitmap_bg_ptr15flip_page_laterEv
                0x00000000        0xc bn_bgs_manager.o
 .text._ZN2bn23dp_direct_bitmap_bg_ptr13flip_page_nowEv
                0x00000000        0xc bn_bgs_manager.o
 .text._ZNK2bn23dp_direct_bitmap_bg_ptr1xEv
                0x00000000        0x8 bn_bgs_manager.o
 .text._ZN2bn23dp_direct_bitmap_bg_ptr5set_xENS_7fixed_tILi12EEE
                0x00000000       0x84 bn_bgs_manager.o
 .text._ZNK2bn23dp_direct_bitmap_bg_ptr1yEv
                0x00000000        0x8 bn_bgs_manager.o
 .text._ZN2bn23dp_direct_bitmap_bg_ptr5set_yENS_7fixed_tILi12EEE
                0x00000000       0x84 bn_bgs_manager.o
 .text._ZNK2bn23dp_direct_bitmap_bg_ptr8positionEv
                0x00000000        0x8 bn_bgs_manager.o
 .text._ZNK2bn23dp_direct_bitmap_bg_ptr10top_left_xEv
                0x00000000        0xc bn_bgs_manager.o
 .text._ZNK2bn23dp_direct_bitmap_bg_ptr10top_left_yEv
                0x00000000        0xc bn_bgs_manager.o
 .text._ZNK2bn23dp_direct_bitmap_bg_ptr17top_left_positionEv
                0x00000000       0x18 bn_bgs_manager.o
 .text._ZNK2bn23dp_direct_bitmap_bg_ptr14rotation_angleEv
                0x00000000        0x8 bn_bgs_manager.o
 .text._ZNK2bn23dp_direct_bitmap_bg_ptr16horizontal_scaleEv
                0x00000000        0x8 bn_bgs_manager.o
 .text._ZNK2bn23dp_direct_bitmap_bg_ptr14vertical_scaleEv
                0x00000000        0x8 bn_bgs_manager.o
 .text._ZNK2bn23dp_direct_bitmap_bg_ptr16horizontal_shearEv
                0x00000000        0x8 bn_bgs_manager.o
 .text._ZN2bn23dp_direct_bitmap_bg_ptr20set_horizontal_shearENS_7fixed_tILi12EEE
                0x00000000       0xb0 bn_bgs_manager.o
 .text._ZNK2bn23dp_direct_bitmap_bg_ptr14vertical_shearEv
                0x00000000        0x8 bn_bgs_manager.o
 .text._ZN2bn23dp_direct_bitmap_bg_ptr18set_vertical_shearENS_7fixed_tILi12EEE
                0x00000000       0xa4 bn_bgs_manager.o
 .text._ZNK2bn23dp_direct_bitmap_bg_ptr15horizontal_flipEv
                0x00000000        0xc bn_bgs_manager.o
 .text._ZNK2bn23dp_direct_bitmap_bg_ptr13vertical_flipEv
                0x00000000        0xc bn_bgs_manager.o
 .text._ZNK2bn23dp_direct_bitmap_bg_ptr7pivot_xEv
                0x00000000        0x8 bn_bgs_manager.o
 .text._ZN2bn23dp_direct_bitmap_bg_ptr11set_pivot_xENS_7fixed_tILi12EEE
                0x00000000       0x54 bn_bgs_manager.o
 .text._ZNK2bn23dp_direct_bitmap_bg_ptr7pivot_yEv
                0x00000000        0x8 bn_bgs_manager.o
 .text._ZN2bn23dp_direct_bitmap_bg_ptr11set_pivot_yENS_7fixed_tILi12EEE
                0x00000000       0x54 bn_bgs_manager.o
 .text._ZNK2bn23dp_direct_bitmap_bg_ptr14pivot_positionEv
                0x00000000        0x8 bn_bgs_manager.o
 .text._ZN2bn23dp_direct_bitmap_bg_ptr18set_pivot_positionENS_7fixed_tILi12EEES2_
                0x00000000       0x90 bn_bgs_manager.o
 .text._ZN2bn23dp_direct_bitmap_bg_ptr18set_pivot_positionERKNS_13fixed_point_tILi12EEE
                0x00000000       0x90 bn_bgs_manager.o
 .text._ZNK2bn23dp_direct_bitmap_bg_ptr14mat_attributesEv
                0x00000000        0x8 bn_bgs_manager.o
 .text._ZNK2bn23dp_direct_bitmap_bg_ptr8priorityEv
                0x00000000        0x8 bn_bgs_manager.o
 .text._ZNK2bn23dp_direct_bitmap_bg_ptr14mosaic_enabledEv
                0x00000000        0xc bn_bgs_manager.o
 .text._ZN2bn23dp_direct_bitmap_bg_ptr18set_mosaic_enabledEb
                0x00000000       0x4c bn_bgs_manager.o
 .text._ZNK2bn23dp_direct_bitmap_bg_ptr20blending_top_enabledEv
                0x00000000        0xc bn_bgs_manager.o
 .text._ZN2bn23dp_direct_bitmap_bg_ptr24set_blending_top_enabledEb
                0x00000000       0x40 bn_bgs_manager.o
 .text._ZNK2bn23dp_direct_bitmap_bg_ptr23blending_bottom_enabledEv
                0x00000000        0xc bn_bgs_manager.o
 .text._ZN2bn23dp_direct_bitmap_bg_ptr27set_blending_bottom_enabledEb
                0x00000000       0x44 bn_bgs_manager.o
 .text._ZNK2bn23dp_direct_bitmap_bg_ptr15green_swap_modeEv
                0x00000000        0xc bn_bgs_manager.o
 .text._ZN2bn23dp_direct_bitmap_bg_ptr19set_green_swap_modeENS_15green_swap_modeE
                0x00000000       0x48 bn_bgs_manager.o
 .text._ZNK2bn23dp_direct_bitmap_bg_ptr7visibleEv
                0x00000000        0xc bn_bgs_manager.o
 .text._ZN2bn23dp_direct_bitmap_bg_ptr11set_visibleEb
                0x00000000       0x38 bn_bgs_manager.o
 .text._ZNK2bn23dp_direct_bitmap_bg_ptr17visible_in_windowERKNS_6windowE
                0x00000000       0x14 bn_bgs_manager.o
 .text._ZN2bn23dp_direct_bitmap_bg_ptr21set_visible_in_windowEbRNS_6windowE
                0x00000000       0x14 bn_bgs_manager.o
 .text._ZNK2bn23dp_direct_bitmap_bg_ptr6cameraEv
                0x00000000        0x8 bn_bgs_manager.o
 .text._ZNK2bn27dp_direct_bitmap_bg_builder10top_left_xEv
                0x00000000        0xc bn_bgs_manager.o
 .text._ZN2bn27dp_direct_bitmap_bg_builder14set_top_left_xENS_7fixed_tILi12EEE
                0x00000000        0xc bn_bgs_manager.o
 .text._ZNK2bn27dp_direct_bitmap_bg_builder10top_left_yEv
                0x00000000        0xc bn_bgs_manager.o
 .text._ZN2bn27dp_direct_bitmap_bg_builder14set_top_left_yENS_7fixed_tILi12EEE
                0x00000000        0xc bn_bgs_manager.o
 .text._ZNK2bn27dp_direct_bitmap_bg_builder17top_left_positionEv
                0x00000000       0x18 bn_bgs_manager.o
 .text._ZN2bn27dp_direct_bitmap_bg_builder21set_top_left_positionENS_7fixed_tILi12EEES2_
                0x00000000       0x18 bn_bgs_manager.o
 .text._ZN2bn27dp_direct_bitmap_bg_builder21set_top_left_positionERKNS_13fixed_point_tILi12EEE
                0x00000000       0x1c bn_bgs_manager.o
 .text._ZN2bn27dp_direct_bitmap_bg_builder6expandEv
                0x00000000       0x70 bn_bgs_manager.o
 .text._ZN2bn27dp_direct_bitmap_bg_builder14release_cameraEv
                0x00000000       0x30 bn_bgs_manager.o
 .text._ZN2bn27dp_direct_bitmap_bg_painterC2ERKNS_23dp_direct_bitmap_bg_ptrE
                0x00000000       0x24 bn_bgs_manager.o
 .text._ZN2bn27dp_direct_bitmap_bg_painterC2EONS_23dp_direct_bitmap_bg_ptrE
                0x00000000       0x20 bn_bgs_manager.o
 .text._ZN2bn27dp_direct_bitmap_bg_painterC2EOS0_
                0x00000000       0x24 bn_bgs_manager.o
 .text._ZN2bn27dp_direct_bitmap_bg_painteraSEOS0_
                0x00000000       0x2c bn_bgs_manager.o
 .text._ZN2bn11bgs_manager10used_countEv
                0x00000000       0x10 bn_bgs_manager.o
 .text._ZN2bn11bgs_manager15available_countEv
                0x00000000       0x14 bn_bgs_manager.o
 .text._ZN2bn11bgs_manager15increase_usagesEPv
                0x00000000        0x8 bn_bgs_manager.o
 .text._ZN2bn11bgs_manager3bigEPv
                0x00000000        0xc bn_bgs_manager.o
 .text._ZN2bn11bgs_manager18remove_regular_mapEPv
                0x00000000       0x1c bn_bgs_manager.o
 .text._ZN2bn11bgs_manager17remove_affine_mapEPv
                0x00000000       0x1c bn_bgs_manager.o
 .text._ZN2bn11bgs_manager18set_bitmap_paletteERKNS_14bg_palette_ptrE
                0x00000000       0x38 bn_bgs_manager.o
 .text._ZN2bn11bgs_manager18set_bitmap_paletteEONS_14bg_palette_ptrE
                0x00000000       0x38 bn_bgs_manager.o
 .text._ZN2bn11bgs_manager8positionEPv
                0x00000000        0x4 bn_bgs_manager.o
 .text._ZN2bn11bgs_manager13set_regular_xEPvNS_7fixed_tILi12EEE
                0x00000000       0x68 bn_bgs_manager.o
 .text._ZN2bn11bgs_manager12set_affine_xEPvNS_7fixed_tILi12EEE
                0x00000000       0x80 bn_bgs_manager.o
 .text._ZN2bn21palette_bitmap_bg_ptr14set_top_left_xENS_7fixed_tILi12EEE
                0x00000000       0x10 bn_bgs_manager.o
 .text._ZN2bn23sp_direct_bitmap_bg_ptr14set_top_left_xENS_7fixed_tILi12EEE
                0x00000000       0x10 bn_bgs_manager.o
 .text._ZN2bn23dp_direct_bitmap_bg_ptr14set_top_left_xENS_7fixed_tILi12EEE
                0x00000000       0x18 bn_bgs_manager.o
 .text._ZN2bn11bgs_manager13set_regular_yEPvNS_7fixed_tILi12EEE
                0x00000000       0x64 bn_bgs_manager.o
 .text._ZN2bn11bgs_manager12set_affine_yEPvNS_7fixed_tILi12EEE
                0x00000000       0x84 bn_bgs_manager.o
 .text._ZN2bn21palette_bitmap_bg_ptr14set_top_left_yENS_7fixed_tILi12EEE
                0x00000000       0x10 bn_bgs_manager.o
 .text._ZN2bn23sp_direct_bitmap_bg_ptr14set_top_left_yENS_7fixed_tILi12EEE
                0x00000000       0x10 bn_bgs_manager.o
 .text._ZN2bn23dp_direct_bitmap_bg_ptr14set_top_left_yENS_7fixed_tILi12EEE
                0x00000000       0x18 bn_bgs_manager.o
 .text._ZN2bn11bgs_manager20set_regular_positionEPvRKNS_13fixed_point_tILi12EEE
                0x00000000       0x80 bn_bgs_manager.o
 .text._ZN2bn11bgs_manager19set_affine_positionEPvRKNS_13fixed_point_tILi12EEE
                0x00000000       0xf8 bn_bgs_manager.o
 .text._ZN2bn13affine_bg_ptr12set_positionENS_7fixed_tILi12EEES2_
                0x00000000       0x18 bn_bgs_manager.o
 .text._ZN2bn13affine_bg_ptr12set_positionERKNS_13fixed_point_tILi12EEE
                0x00000000       0x10 bn_bgs_manager.o
 .text._ZN2bn21palette_bitmap_bg_ptr12set_positionENS_7fixed_tILi12EEES2_
                0x00000000       0x18 bn_bgs_manager.o
 .text._ZN2bn21palette_bitmap_bg_ptr12set_positionERKNS_13fixed_point_tILi12EEE
                0x00000000       0x10 bn_bgs_manager.o
 .text._ZN2bn21palette_bitmap_bg_ptr21set_top_left_positionENS_7fixed_tILi12EEES2_
                0x00000000       0x18 bn_bgs_manager.o
 .text._ZN2bn21palette_bitmap_bg_ptr21set_top_left_positionERKNS_13fixed_point_tILi12EEE
                0x00000000       0x18 bn_bgs_manager.o
 .text._ZN2bn23sp_direct_bitmap_bg_ptr12set_positionENS_7fixed_tILi12EEES2_
                0x00000000       0x18 bn_bgs_manager.o
 .text._ZN2bn23sp_direct_bitmap_bg_ptr12set_positionERKNS_13fixed_point_tILi12EEE
                0x00000000       0x10 bn_bgs_manager.o
 .text._ZN2bn23sp_direct_bitmap_bg_ptr21set_top_left_positionENS_7fixed_tILi12EEES2_
                0x00000000       0x18 bn_bgs_manager.o
 .text._ZN2bn23sp_direct_bitmap_bg_ptr21set_top_left_positionERKNS_13fixed_point_tILi12EEE
                0x00000000       0x18 bn_bgs_manager.o
 .text._ZN2bn23dp_direct_bitmap_bg_ptr12set_positionENS_7fixed_tILi12EEES2_
                0x00000000       0x18 bn_bgs_manager.o
 .text._ZN2bn23dp_direct_bitmap_bg_ptr12set_positionERKNS_13fixed_point_tILi12EEE
                0x00000000       0x10 bn_bgs_manager.o
 .text._ZN2bn23dp_direct_bitmap_bg_ptr21set_top_left_positionENS_7fixed_tILi12EEES2_
                0x00000000       0x28 bn_bgs_manager.o
 .text._ZN2bn23dp_direct_bitmap_bg_ptr21set_top_left_positionERKNS_13fixed_point_tILi12EEE
                0x00000000       0x2c bn_bgs_manager.o
 .text._ZN2bn11bgs_manager14rotation_angleEPv
                0x00000000        0x4 bn_bgs_manager.o
 .text._ZN2bn11bgs_manager16horizontal_scaleEPv
                0x00000000        0x4 bn_bgs_manager.o
 .text._ZN2bn11bgs_manager14vertical_scaleEPv
                0x00000000        0x4 bn_bgs_manager.o
 .text._ZN2bn11bgs_manager16horizontal_shearEPv
                0x00000000        0x4 bn_bgs_manager.o
 .text._ZN2bn11bgs_manager20set_horizontal_shearEPvNS_7fixed_tILi12EEE
                0x00000000       0xa8 bn_bgs_manager.o
 .text._ZN2bn11bgs_manager14vertical_shearEPv
                0x00000000        0x4 bn_bgs_manager.o
 .text._ZN2bn11bgs_manager18set_vertical_shearEPvNS_7fixed_tILi12EEE
                0x00000000       0xa4 bn_bgs_manager.o
 .text._ZN2bn11bgs_manager9set_shearEPvNS_7fixed_tILi12EEE
                0x00000000       0xec bn_bgs_manager.o
 .text._ZN2bn13affine_bg_ptr9set_shearENS_7fixed_tILi12EEE
                0x00000000       0x10 bn_bgs_manager.o
 .text._ZN2bn21palette_bitmap_bg_ptr9set_shearENS_7fixed_tILi12EEE
                0x00000000       0x10 bn_bgs_manager.o
 .text._ZN2bn23sp_direct_bitmap_bg_ptr9set_shearENS_7fixed_tILi12EEE
                0x00000000       0x10 bn_bgs_manager.o
 .text._ZN2bn23dp_direct_bitmap_bg_ptr9set_shearENS_7fixed_tILi12EEE
                0x00000000       0x10 bn_bgs_manager.o
 .text._ZN2bn11bgs_manager9set_shearEPvNS_7fixed_tILi12EEES3_
                0x00000000       0xf8 bn_bgs_manager.o
 .text._ZN2bn13affine_bg_ptr9set_shearENS_7fixed_tILi12EEES2_
                0x00000000       0x10 bn_bgs_manager.o
 .text._ZN2bn21palette_bitmap_bg_ptr9set_shearENS_7fixed_tILi12EEES2_
                0x00000000       0x10 bn_bgs_manager.o
 .text._ZN2bn23sp_direct_bitmap_bg_ptr9set_shearENS_7fixed_tILi12EEES2_
                0x00000000       0x10 bn_bgs_manager.o
 .text._ZN2bn23dp_direct_bitmap_bg_ptr9set_shearENS_7fixed_tILi12EEES2_
                0x00000000       0x10 bn_bgs_manager.o
 .text._ZN2bn11bgs_manager15horizontal_flipEPv
                0x00000000        0x8 bn_bgs_manager.o
 .text._ZN2bn11bgs_manager19set_horizontal_flipEPvb
                0x00000000       0xb4 bn_bgs_manager.o
 .text._ZN2bn13affine_bg_ptr19set_horizontal_flipEb
                0x00000000       0x10 bn_bgs_manager.o
 .text._ZN2bn21palette_bitmap_bg_ptr19set_horizontal_flipEb
                0x00000000       0x10 bn_bgs_manager.o
 .text._ZN2bn23sp_direct_bitmap_bg_ptr19set_horizontal_flipEb
                0x00000000       0x10 bn_bgs_manager.o
 .text._ZN2bn23dp_direct_bitmap_bg_ptr19set_horizontal_flipEb
                0x00000000       0x10 bn_bgs_manager.o
 .text._ZN2bn11bgs_manager13vertical_flipEPv
                0x00000000        0x8 bn_bgs_manager.o
 .text._ZN2bn11bgs_manager17set_vertical_flipEPvb
                0x00000000       0xb4 bn_bgs_manager.o
 .text._ZN2bn13affine_bg_ptr17set_vertical_flipEb
                0x00000000       0x10 bn_bgs_manager.o
 .text._ZN2bn21palette_bitmap_bg_ptr17set_vertical_flipEb
                0x00000000       0x10 bn_bgs_manager.o
 .text._ZN2bn23sp_direct_bitmap_bg_ptr17set_vertical_flipEb
                0x00000000       0x10 bn_bgs_manager.o
 .text._ZN2bn23dp_direct_bitmap_bg_ptr17set_vertical_flipEb
                0x00000000       0x10 bn_bgs_manager.o
 .text._ZN2bn11bgs_manager14pivot_positionEPv
                0x00000000        0x4 bn_bgs_manager.o
 .text._ZN2bn11bgs_manager11set_pivot_xEPvNS_7fixed_tILi12EEE
                0x00000000       0x54 bn_bgs_manager.o
 .text._ZN2bn11bgs_manager11set_pivot_yEPvNS_7fixed_tILi12EEE
                0x00000000       0x54 bn_bgs_manager.o
 .text._ZN2bn11bgs_manager18set_pivot_positionEPvRKNS_13fixed_point_tILi12EEE
                0x00000000       0x90 bn_bgs_manager.o
 .text._ZN2bn11bgs_manager18set_mat_attributesEPvRKNS_21affine_mat_attributesE
                0x00000000      0x108 bn_bgs_manager.o
 .text._ZN2bn13affine_bg_ptr18set_mat_attributesERKNS_21affine_mat_attributesE
                0x00000000       0x10 bn_bgs_manager.o
 .text._ZN2bn21palette_bitmap_bg_ptr18set_mat_attributesERKNS_21affine_mat_attributesE
                0x00000000       0x10 bn_bgs_manager.o
 .text._ZN2bn23sp_direct_bitmap_bg_ptr18set_mat_attributesERKNS_21affine_mat_attributesE
                0x00000000       0x10 bn_bgs_manager.o
 .text._ZN2bn23dp_direct_bitmap_bg_ptr18set_mat_attributesERKNS_21affine_mat_attributesE
                0x00000000       0x10 bn_bgs_manager.o
 .text._ZN2bn11bgs_manager8priorityEPv
                0x00000000        0x8 bn_bgs_manager.o
 .text._ZN2bn11bgs_manager7z_orderEPv
                0x00000000       0x10 bn_bgs_manager.o
 .text._ZN2bn11bgs_manager9put_aboveEPv
                0x00000000       0x68 bn_bgs_manager.o
 .text._ZN2bn13affine_bg_ptr9put_aboveEv
                0x00000000       0x10 bn_bgs_manager.o
 .text._ZN2bn14regular_bg_ptr9put_aboveEv
                0x00000000       0x10 bn_bgs_manager.o
 .text._ZN2bn11bgs_manager9put_belowEPv
                0x00000000       0x6c bn_bgs_manager.o
 .text._ZN2bn13affine_bg_ptr9put_belowEv
                0x00000000       0x10 bn_bgs_manager.o
 .text._ZN2bn14regular_bg_ptr9put_belowEv
                0x00000000       0x10 bn_bgs_manager.o
 .text._ZN2bn11bgs_manager16wrapping_enabledEPv
                0x00000000        0xc bn_bgs_manager.o
 .text._ZN2bn11bgs_manager20set_wrapping_enabledEPvb
                0x00000000       0x50 bn_bgs_manager.o
 .text._ZN2bn11bgs_manager14mosaic_enabledEPv
                0x00000000        0xc bn_bgs_manager.o
 .text._ZN2bn11bgs_manager18set_mosaic_enabledEPvb
                0x00000000       0x48 bn_bgs_manager.o
 .text._ZN2bn11bgs_manager15green_swap_modeEPv
                0x00000000        0xc bn_bgs_manager.o
 .text._ZN2bn11bgs_manager19set_green_swap_modeEPvNS_15green_swap_modeE
                0x00000000       0x48 bn_bgs_manager.o
 .text._ZN2bn11bgs_manager20blending_top_enabledEPv
                0x00000000        0xc bn_bgs_manager.o
 .text._ZN2bn11bgs_manager24set_blending_top_enabledEPvb
                0x00000000       0x40 bn_bgs_manager.o
 .text._ZN2bn11bgs_manager23blending_bottom_enabledEPv
                0x00000000        0xc bn_bgs_manager.o
 .text._ZN2bn11bgs_manager27set_blending_bottom_enabledEPvb
                0x00000000       0x44 bn_bgs_manager.o
 .text._ZN2bn11bgs_manager7visibleEPv
                0x00000000        0xc bn_bgs_manager.o
 .text._ZN2bn11bgs_manager11set_visibleEPvb
                0x00000000       0x38 bn_bgs_manager.o
 .text._ZN2bn11bgs_manager14show_in_windowEPvi
                0x00000000        0x8 bn_bgs_manager.o
 .text._ZN2bn11bgs_manager18set_show_in_windowEPvib
                0x00000000       0x18 bn_bgs_manager.o
 .text._ZN2bn11bgs_manager22set_show_all_in_windowEib
                0x00000000       0x48 bn_bgs_manager.o
 .text._ZN2bn11bgs_manager6cameraEPv
                0x00000000        0x4 bn_bgs_manager.o
 .text._ZN2bn11bgs_manager10set_cameraEPvONS_10camera_ptrE
                0x00000000      0x1a0 bn_bgs_manager.o
 .text._ZN2bn13affine_bg_ptr10set_cameraERKNS_10camera_ptrE
                0x00000000       0x24 bn_bgs_manager.o
 .text._ZN2bn13affine_bg_ptr10set_cameraEONS_10camera_ptrE
                0x00000000       0x10 bn_bgs_manager.o
 .text._ZN2bn14regular_bg_ptr10set_cameraERKNS_10camera_ptrE
                0x00000000       0x24 bn_bgs_manager.o
 .text._ZN2bn14regular_bg_ptr10set_cameraEONS_10camera_ptrE
                0x00000000       0x10 bn_bgs_manager.o
 .text._ZN2bn21palette_bitmap_bg_ptr10set_cameraERKNS_10camera_ptrE
                0x00000000       0x24 bn_bgs_manager.o
 .text._ZN2bn21palette_bitmap_bg_ptr10set_cameraEONS_10camera_ptrE
                0x00000000       0x10 bn_bgs_manager.o
 .text._ZN2bn23sp_direct_bitmap_bg_ptr10set_cameraERKNS_10camera_ptrE
                0x00000000       0x24 bn_bgs_manager.o
 .text._ZN2bn23sp_direct_bitmap_bg_ptr10set_cameraEONS_10camera_ptrE
                0x00000000       0x10 bn_bgs_manager.o
 .text._ZN2bn23dp_direct_bitmap_bg_ptr10set_cameraERKNS_10camera_ptrE
                0x00000000       0x24 bn_bgs_manager.o
 .text._ZN2bn23dp_direct_bitmap_bg_ptr10set_cameraEONS_10camera_ptrE
                0x00000000       0x10 bn_bgs_manager.o
 .text._ZN2bn11bgs_manager13remove_cameraEPv
                0x00000000      0x110 bn_bgs_manager.o
 .text._ZN2bn13affine_bg_ptr10set_cameraERKNS_8optionalINS_10camera_ptrEEE
                0x00000000       0x34 bn_bgs_manager.o
 .text._ZN2bn13affine_bg_ptr10set_cameraEONS_8optionalINS_10camera_ptrEEE
                0x00000000       0x1c bn_bgs_manager.o
 .text._ZN2bn13affine_bg_ptr13remove_cameraEv
                0x00000000       0x10 bn_bgs_manager.o
 .text._ZN2bn14regular_bg_ptr10set_cameraERKNS_8optionalINS_10camera_ptrEEE
                0x00000000       0x34 bn_bgs_manager.o
 .text._ZN2bn14regular_bg_ptr10set_cameraEONS_8optionalINS_10camera_ptrEEE
                0x00000000       0x1c bn_bgs_manager.o
 .text._ZN2bn14regular_bg_ptr13remove_cameraEv
                0x00000000       0x10 bn_bgs_manager.o
 .text._ZN2bn21palette_bitmap_bg_ptr10set_cameraERKNS_8optionalINS_10camera_ptrEEE
                0x00000000       0x34 bn_bgs_manager.o
 .text._ZN2bn21palette_bitmap_bg_ptr10set_cameraEONS_8optionalINS_10camera_ptrEEE
                0x00000000       0x1c bn_bgs_manager.o
 .text._ZN2bn21palette_bitmap_bg_ptr13remove_cameraEv
                0x00000000       0x10 bn_bgs_manager.o
 .text._ZN2bn23sp_direct_bitmap_bg_ptr10set_cameraERKNS_8optionalINS_10camera_ptrEEE
                0x00000000       0x34 bn_bgs_manager.o
 .text._ZN2bn23sp_direct_bitmap_bg_ptr10set_cameraEONS_8optionalINS_10camera_ptrEEE
                0x00000000       0x1c bn_bgs_manager.o
 .text._ZN2bn23sp_direct_bitmap_bg_ptr13remove_cameraEv
                0x00000000       0x10 bn_bgs_manager.o
 .text._ZN2bn23dp_direct_bitmap_bg_ptr10set_cameraERKNS_8optionalINS_10camera_ptrEEE
                0x00000000       0x34 bn_bgs_manager.o
 .text._ZN2bn23dp_direct_bitmap_bg_ptr10set_cameraEONS_8optionalINS_10camera_ptrEEE
                0x00000000       0x1c bn_bgs_manager.o
 .text._ZN2bn23dp_direct_bitmap_bg_ptr13remove_cameraEv
                0x00000000       0x10 bn_bgs_manager.o
 .text._ZN2bn11bgs_manager27update_affine_map_tiles_cbbEii
                0x00000000       0x94 bn_bgs_manager.o
 .text._ZN2bn11bgs_manager6reloadEv
                0x00000000       0x14 bn_bgs_manager.o
 .text._ZN3_bn6assert9show_argsIA18_ciEEvPKcS4_S4_iRKT_RKT0_
                0x00000000       0x54 bn_bgs_manager.o
 .rodata._ZN2bn17affine_bg_builder11set_z_orderEi.str1.4
                0x00000000       0x7a bn_bgs_manager.o
 .text._ZN2bn17affine_bg_builder11set_z_orderEi
                0x00000000       0x44 bn_bgs_manager.o
 .rodata._ZN2bn18regular_bg_builder11set_z_orderEi.str1.4
                0x00000000       0x1c bn_bgs_manager.o
 .text._ZN2bn18regular_bg_builder11set_z_orderEi
                0x00000000       0x44 bn_bgs_manager.o
 .text._ZN3_bn6assert9show_argsIA16_ciEEvPKcS4_S4_iRKT_RKT0_
                0x00000000       0x54 bn_bgs_manager.o
 .text._ZN2bn11bgs_manager10dimensionsEPv
                0x00000000       0x64 bn_bgs_manager.o
 .text._ZNK2bn13affine_bg_ptr10dimensionsEv
                0x00000000       0x64 bn_bgs_manager.o
 .text._ZNK2bn14regular_bg_ptr10dimensionsEv
                0x00000000       0x64 bn_bgs_manager.o
 .text._ZNK2bn13affine_bg_ptr10top_left_xEv
                0x00000000       0x6c bn_bgs_manager.o
 .text._ZNK2bn14regular_bg_ptr10top_left_xEv
                0x00000000       0x6c bn_bgs_manager.o
 .text._ZNK2bn13affine_bg_ptr10top_left_yEv
                0x00000000       0x6c bn_bgs_manager.o
 .text._ZNK2bn14regular_bg_ptr10top_left_yEv
                0x00000000       0x6c bn_bgs_manager.o
 .text._ZN2bn13affine_bg_ptr14set_top_left_xENS_7fixed_tILi12EEE
                0x00000000       0x6c bn_bgs_manager.o
 .text._ZN2bn13affine_bg_ptr14set_top_left_yENS_7fixed_tILi12EEE
                0x00000000       0x6c bn_bgs_manager.o
 .text._ZNK2bn13affine_bg_ptr17top_left_positionEv
                0x00000000       0x7c bn_bgs_manager.o
 .text._ZNK2bn14regular_bg_ptr17top_left_positionEv
                0x00000000       0x7c bn_bgs_manager.o
 .text._ZN2bn14regular_bg_ptr21set_top_left_positionERKNS_13fixed_point_tILi12EEE
                0x00000000       0xe4 bn_bgs_manager.o
 .text._ZN2bn14regular_bg_ptr21set_top_left_positionENS_7fixed_tILi12EEES2_
                0x00000000       0xdc bn_bgs_manager.o
 .text._ZN2bn13affine_bg_ptr21set_top_left_positionENS_7fixed_tILi12EEES2_
                0x00000000       0x80 bn_bgs_manager.o
 .text._ZN2bn13affine_bg_ptr21set_top_left_positionERKNS_13fixed_point_tILi12EEE
                0x00000000       0x84 bn_bgs_manager.o
 .text._ZN2bn14regular_bg_ptr14set_top_left_xENS_7fixed_tILi12EEE
                0x00000000       0xc4 bn_bgs_manager.o
 .text._ZN2bn14regular_bg_ptr14set_top_left_yENS_7fixed_tILi12EEE
                0x00000000       0xc4 bn_bgs_manager.o
 .text._ZN3_bn6assert9show_argsIA15_ciEEvPKcS4_S4_iRKT_RKT0_
                0x00000000       0x54 bn_bgs_manager.o
 .rodata._ZNK2bn14affine_bg_item10decompressENS_4spanINS_4tileEEENS1_INS_5colorEEERhRKNS_4sizeE.str1.4
                0x00000000       0x33 bn_bgs_manager.o
 .text._ZNK2bn14affine_bg_item10decompressENS_4spanINS_4tileEEENS1_INS_5colorEEERhRKNS_4sizeE
                0x00000000       0x6c bn_bgs_manager.o
 .text._ZNK2bn15regular_bg_item10decompressENS_4spanINS_4tileEEENS1_INS_5colorEEERtRKNS_4sizeE
                0x00000000       0x70 bn_bgs_manager.o
 .text._ZN3_bn6assert9show_argsIJA16_ciA4_ciEEEvPKcS5_S5_iDpRKT_
                0x00000000       0x58 bn_bgs_manager.o
 .text._ZN3_bn6assert9show_argsIA33_cEEvPKcS4_S4_iRKT_
                0x00000000       0x48 bn_bgs_manager.o
 .text._ZN3_bn6assert9show_argsIJA20_ciA4_ciEEEvPKcS5_S5_iDpRKT_
                0x00000000       0x58 bn_bgs_manager.o
 .text._ZN2bn17affine_bg_builderC2ERKNS_14affine_bg_itemEi
                0x00000000       0xc8 bn_bgs_manager.o
 .rodata._ZN2bn18regular_bg_builderC2ERKNS_15regular_bg_itemEi.str1.4
                0x00000000       0x13 bn_bgs_manager.o
 .text._ZN2bn18regular_bg_builderC2ERKNS_15regular_bg_itemEi
                0x00000000       0x80 bn_bgs_manager.o
 .text._ZN3_bn6assert9show_argsIA19_ciEEvPKcS4_S4_iRKT_RKT0_
                0x00000000       0x54 bn_bgs_manager.o
 .rodata._ZN2bn17affine_bg_builder12set_priorityEi.str1.4
                0x00000000       0x57 bn_bgs_manager.o
 .text._ZN2bn17affine_bg_builder12set_priorityEi
                0x00000000       0x38 bn_bgs_manager.o
 .rodata._ZN2bn20affine_bg_attributesC2ERKNS_17affine_bg_map_ptrEibb.str1.4
                0x00000000       0x36 bn_bgs_manager.o
 .text._ZN2bn20affine_bg_attributesC2ERKNS_17affine_bg_map_ptrEibb
                0x00000000       0x50 bn_bgs_manager.o
 .text._ZN2bn20affine_bg_attributesC2ERKNS_17affine_bg_map_ptrEibbNS_15green_swap_modeE
                0x00000000       0x54 bn_bgs_manager.o
 .text._ZN2bn20affine_bg_attributesC2EONS_17affine_bg_map_ptrEibb
                0x00000000       0x54 bn_bgs_manager.o
 .text._ZN2bn20affine_bg_attributesC2EONS_17affine_bg_map_ptrEibbNS_15green_swap_modeE
                0x00000000       0x58 bn_bgs_manager.o
 .text._ZN2bn20affine_bg_attributes12set_priorityEi
                0x00000000       0x38 bn_bgs_manager.o
 .text._ZN2bn18regular_bg_builder12set_priorityEi
                0x00000000       0x38 bn_bgs_manager.o
 .rodata._ZN2bn21regular_bg_attributesC2ERKNS_18regular_bg_map_ptrEib.str1.4
                0x00000000       0x37 bn_bgs_manager.o
 .text._ZN2bn21regular_bg_attributesC2ERKNS_18regular_bg_map_ptrEib
                0x00000000       0x4c bn_bgs_manager.o
 .text._ZN2bn21regular_bg_attributesC2ERKNS_18regular_bg_map_ptrEibNS_15green_swap_modeE
                0x00000000       0x4c bn_bgs_manager.o
 .text._ZN2bn21regular_bg_attributesC2EONS_18regular_bg_map_ptrEib
                0x00000000       0x48 bn_bgs_manager.o
 .text._ZN2bn21regular_bg_attributesC2EONS_18regular_bg_map_ptrEibNS_15green_swap_modeE
                0x00000000       0x50 bn_bgs_manager.o
 .text._ZN2bn21regular_bg_attributes12set_priorityEi
                0x00000000       0x38 bn_bgs_manager.o
 .rodata._ZN2bn20bitmap_bg_attributesC2Eib.str1.4
                0x00000000       0x36 bn_bgs_manager.o
 .text._ZN2bn20bitmap_bg_attributesC2Eib
                0x00000000       0x3c bn_bgs_manager.o
 .text._ZN2bn20bitmap_bg_attributesC2EibNS_15green_swap_modeE
                0x00000000       0x3c bn_bgs_manager.o
 .text._ZN2bn20bitmap_bg_attributes12set_priorityEi
                0x00000000       0x38 bn_bgs_manager.o
 .rodata._ZN2bn25palette_bitmap_bg_builder12set_priorityEi.str1.4
                0x00000000       0x23 bn_bgs_manager.o
 .text._ZN2bn25palette_bitmap_bg_builder12set_priorityEi
                0x00000000       0x38 bn_bgs_manager.o
 .rodata._ZN2bn27sp_direct_bitmap_bg_builder12set_priorityEi.str1.4
                0x00000000       0x25 bn_bgs_manager.o
 .text._ZN2bn27sp_direct_bitmap_bg_builder12set_priorityEi
                0x00000000       0x38 bn_bgs_manager.o
 .rodata._ZN2bn27dp_direct_bitmap_bg_builder12set_priorityEi.str1.4
                0x00000000       0x25 bn_bgs_manager.o
 .text._ZN2bn27dp_direct_bitmap_bg_builder12set_priorityEi
                0x00000000       0x38 bn_bgs_manager.o
 .text._ZN2bn11bgs_manager17bitmap_attributesEPv
                0x00000000       0x54 bn_bgs_manager.o
 .text._ZNK2bn21palette_bitmap_bg_ptr10attributesEv
                0x00000000       0x54 bn_bgs_manager.o
 .text._ZNK2bn23sp_direct_bitmap_bg_ptr10attributesEv
                0x00000000       0x54 bn_bgs_manager.o
 .text._ZNK2bn23dp_direct_bitmap_bg_ptr10attributesEv
                0x00000000       0x54 bn_bgs_manager.o
 .text._ZN3_bn6assert9show_argsIA38_cEEvPKcS4_S4_iRKT_
                0x00000000       0x48 bn_bgs_manager.o
 .rodata._ZN2bn25palette_bitmap_bg_builderC2ERKNS_15bg_palette_itemE.str1.4
                0x00000000       0x6a bn_bgs_manager.o
 .text._ZN2bn25palette_bitmap_bg_builderC2ERKNS_15bg_palette_itemE
                0x00000000       0x88 bn_bgs_manager.o
 .rodata._ZN2bn25palette_bitmap_bg_builderC2ERKNS_14bg_palette_ptrE.str1.4
                0x00000000       0x21 bn_bgs_manager.o
 .text._ZN2bn25palette_bitmap_bg_builderC2ERKNS_14bg_palette_ptrE
                0x00000000       0x9c bn_bgs_manager.o
 .rodata._ZN2bn25palette_bitmap_bg_builderC2EONS_14bg_palette_ptrE.str1.4
                0x00000000       0x23 bn_bgs_manager.o
 .text._ZN2bn25palette_bitmap_bg_builderC2EONS_14bg_palette_ptrE
                0x00000000       0x94 bn_bgs_manager.o
 .rodata._ZN2bn21palette_bitmap_bg_ptr11set_paletteEONS_14bg_palette_ptrE.str1.4
                0x00000000       0x2b bn_bgs_manager.o
 .text._ZN2bn21palette_bitmap_bg_ptr11set_paletteEONS_14bg_palette_ptrE
                0x00000000       0x64 bn_bgs_manager.o
 .text._ZN2bn21palette_bitmap_bg_ptr11set_paletteERKNS_14bg_palette_ptrE
                0x00000000       0x68 bn_bgs_manager.o
 .text._ZN3_bn6assert9show_argsIJA58_ciA4_ciEEEvPKcS5_S5_iDpRKT_
                0x00000000       0x58 bn_bgs_manager.o
 .text._ZN3_bn6assert9show_argsIA27_ciEEvPKcS4_S4_iRKT_RKT0_
                0x00000000       0x54 bn_bgs_manager.o
 .text._ZNK2bn26palette_bitmap_pixels_item10decompressENS_4spanIhEE
                0x00000000       0xcc bn_bgs_manager.o
 .text._ZNK2bn19palette_bitmap_item10decompressENS_4spanIhEENS1_INS_5colorEEE
                0x00000000       0x58 bn_bgs_manager.o
 .rodata._ZNK2bn18direct_bitmap_item10decompressENS_4spanINS_5colorEEE.str1.4
                0x00000000       0x52 bn_bgs_manager.o
 .text._ZNK2bn18direct_bitmap_item10decompressENS_4spanINS_5colorEEE
                0x00000000       0xcc bn_bgs_manager.o
 .text._ZN3_bn6assert9show_argsIA22_cEEvPKcS4_S4_iRKT_
                0x00000000       0x48 bn_bgs_manager.o
 .text._ZNK2bn18regular_bg_builder11_dimensionsEv
                0x00000000       0xa8 bn_bgs_manager.o
 .text._ZNK2bn18regular_bg_builder10top_left_xEv
                0x00000000       0x28 bn_bgs_manager.o
 .text._ZN2bn18regular_bg_builder14set_top_left_xENS_7fixed_tILi12EEE
                0x00000000       0x2c bn_bgs_manager.o
 .text._ZNK2bn18regular_bg_builder10top_left_yEv
                0x00000000       0x28 bn_bgs_manager.o
 .text._ZN2bn18regular_bg_builder14set_top_left_yENS_7fixed_tILi12EEE
                0x00000000       0x2c bn_bgs_manager.o
 .text._ZNK2bn18regular_bg_builder17top_left_positionEv
                0x00000000       0x40 bn_bgs_manager.o
 .text._ZN2bn18regular_bg_builder21set_top_left_positionENS_7fixed_tILi12EEES2_
                0x00000000       0x40 bn_bgs_manager.o
 .text._ZN2bn18regular_bg_builder21set_top_left_positionERKNS_13fixed_point_tILi12EEE
                0x00000000       0x44 bn_bgs_manager.o
 .text._ZNK2bn17affine_bg_builder11_dimensionsEv
                0x00000000       0xa8 bn_bgs_manager.o
 .text._ZNK2bn17affine_bg_builder10top_left_xEv
                0x00000000       0x28 bn_bgs_manager.o
 .text._ZN2bn17affine_bg_builder14set_top_left_xENS_7fixed_tILi12EEE
                0x00000000       0x2c bn_bgs_manager.o
 .text._ZNK2bn17affine_bg_builder10top_left_yEv
                0x00000000       0x28 bn_bgs_manager.o
 .text._ZN2bn17affine_bg_builder14set_top_left_yENS_7fixed_tILi12EEE
                0x00000000       0x2c bn_bgs_manager.o
 .text._ZNK2bn17affine_bg_builder17top_left_positionEv
                0x00000000       0x40 bn_bgs_manager.o
 .text._ZN2bn17affine_bg_builder21set_top_left_positionENS_7fixed_tILi12EEES2_
                0x00000000       0x40 bn_bgs_manager.o
 .text._ZN2bn17affine_bg_builder21set_top_left_positionERKNS_13fixed_point_tILi12EEE
                0x00000000       0x44 bn_bgs_manager.o
 .text._ZN2bn11bgs_manager14bitmap_paletteEv
                0x00000000       0x44 bn_bgs_manager.o
 .text._ZNK2bn21palette_bitmap_bg_ptr7paletteEv
                0x00000000       0x44 bn_bgs_manager.o
 .text._ZN2bn21palette_bitmap_bg_ptr11set_paletteERKNS_15bg_palette_itemE
                0x00000000       0x5c bn_bgs_manager.o
 .text._ZN2bn25palette_bitmap_bg_builder15release_paletteEv
                0x00000000       0x6c bn_bgs_manager.o
 .text._ZN2bn17affine_bg_builder11release_mapEv
                0x00000000       0x70 bn_bgs_manager.o
 .text._ZN2bn18regular_bg_builder11release_mapEv
                0x00000000       0x6c bn_bgs_manager.o
 .text._ZNK2bn13affine_bg_ptr3mapEv
                0x00000000       0x38 bn_bgs_manager.o
 .text._ZNK2bn14regular_bg_ptr3mapEv
                0x00000000       0x38 bn_bgs_manager.o
 .text._ZNK2bn13affine_bg_ptr5tilesEv
                0x00000000       0x3c bn_bgs_manager.o
 .text._ZNK2bn13affine_bg_ptr7paletteEv
                0x00000000       0x3c bn_bgs_manager.o
 .text._ZNK2bn14regular_bg_ptr5tilesEv
                0x00000000       0x3c bn_bgs_manager.o
 .text._ZNK2bn14regular_bg_ptr7paletteEv
                0x00000000       0x3c bn_bgs_manager.o
 .text._ZN2bn13affine_bg_ptr9set_tilesERKNS_19affine_bg_tiles_ptrE
                0x00000000       0x50 bn_bgs_manager.o
 .text._ZN2bn13affine_bg_ptr9set_tilesEONS_19affine_bg_tiles_ptrE
                0x00000000       0x50 bn_bgs_manager.o
 .text._ZN2bn13affine_bg_ptr9set_tilesERKNS_20affine_bg_tiles_itemE
                0x00000000       0x50 bn_bgs_manager.o
 .text._ZN2bn13affine_bg_ptr11set_paletteERKNS_14bg_palette_ptrE
                0x00000000       0x50 bn_bgs_manager.o
 .text._ZN2bn13affine_bg_ptr11set_paletteEONS_14bg_palette_ptrE
                0x00000000       0x50 bn_bgs_manager.o
 .text._ZN2bn13affine_bg_ptr11set_paletteERKNS_15bg_palette_itemE
                0x00000000       0x50 bn_bgs_manager.o
 .text._ZN2bn14regular_bg_ptr9set_tilesERKNS_20regular_bg_tiles_ptrE
                0x00000000       0x50 bn_bgs_manager.o
 .text._ZN2bn14regular_bg_ptr9set_tilesEONS_20regular_bg_tiles_ptrE
                0x00000000       0x50 bn_bgs_manager.o
 .text._ZN2bn14regular_bg_ptr9set_tilesERKNS_21regular_bg_tiles_itemE
                0x00000000       0x50 bn_bgs_manager.o
 .text._ZN2bn14regular_bg_ptr11set_paletteERKNS_14bg_palette_ptrE
                0x00000000       0x50 bn_bgs_manager.o
 .text._ZN2bn14regular_bg_ptr11set_paletteEONS_14bg_palette_ptrE
                0x00000000       0x50 bn_bgs_manager.o
 .text._ZN2bn14regular_bg_ptr11set_paletteERKNS_15bg_palette_itemE
                0x00000000       0x50 bn_bgs_manager.o
 .text._ZN2bn14regular_bg_ptr21set_tiles_and_paletteERKNS_21regular_bg_tiles_itemERKNS_15bg_palette_itemE
                0x00000000       0x54 bn_bgs_manager.o
 .text._ZNK2bn14regular_bg_ptr10attributesEv
                0x00000000       0x84 bn_bgs_manager.o
 .text._ZN2bn14regular_bg_ptr21set_tiles_and_paletteENS_20regular_bg_tiles_ptrENS_14bg_palette_ptrE
                0x00000000       0x74 bn_bgs_manager.o
 .text._ZN2bn11bgs_manager18regular_attributesEPv
                0x00000000       0x84 bn_bgs_manager.o
 .text._ZN2bn11bgs_manager17affine_attributesEPv
                0x00000000       0x8c bn_bgs_manager.o
 .text._ZNK2bn13affine_bg_ptr10attributesEv
                0x00000000       0x8c bn_bgs_manager.o
 .text._ZNK2bn25palette_bitmap_bg_builder7paletteEv
                0x00000000       0x50 bn_bgs_manager.o
 .text._ZNK2bn17affine_bg_builder3mapEv
                0x00000000       0x5c bn_bgs_manager.o
 .text._ZNK2bn18regular_bg_builder3mapEv
                0x00000000       0x50 bn_bgs_manager.o
 .text._ZN2bn11bgs_manager15set_regular_mapEPvONS_18regular_bg_map_ptrE
                0x00000000       0xb8 bn_bgs_manager.o
 .text._ZN2bn14regular_bg_ptr7set_mapEONS_18regular_bg_map_ptrE
                0x00000000       0x10 bn_bgs_manager.o
 .text._ZN2bn14regular_bg_ptr7set_mapERKNS_19regular_bg_map_itemE
                0x00000000      0x108 bn_bgs_manager.o
 .text._ZN2bn14regular_bg_ptr7set_mapERKNS_19regular_bg_map_itemEi
                0x00000000      0x114 bn_bgs_manager.o
 .text._ZN2bn14regular_bg_ptr8set_itemERKNS_15regular_bg_itemE
                0x00000000      0x138 bn_bgs_manager.o
 .text._ZN2bn14regular_bg_ptr8set_itemERKNS_15regular_bg_itemEi
                0x00000000      0x148 bn_bgs_manager.o
 .text._ZN2bn11bgs_manager15set_regular_mapEPvRKNS_18regular_bg_map_ptrE
                0x00000000       0xb8 bn_bgs_manager.o
 .text._ZN2bn14regular_bg_ptr7set_mapERKNS_18regular_bg_map_ptrE
                0x00000000       0x10 bn_bgs_manager.o
 .text._ZN3_bn6assert9show_argsIA45_cEEvPKcS4_S4_iRKT_
                0x00000000       0x48 bn_bgs_manager.o
 .text._ZN3_bn6assert9show_argsIA25_cEEvPKcS4_S4_iRKT_
                0x00000000       0x48 bn_bgs_manager.o
 .text._ZN3_bn6assert9show_argsIA31_cEEvPKcS4_S4_iRKT_
                0x00000000       0x48 bn_bgs_manager.o
 .text._ZN2bn11bgs_manager15rebuild_handlesEv
                0x00000000       0x20 bn_bgs_manager.o
 .text._ZNK2bn13affine_bg_ptr5hw_idEv
                0x00000000       0x40 bn_bgs_manager.o
 .text._ZNK2bn14regular_bg_ptr5hw_idEv
                0x00000000       0x40 bn_bgs_manager.o
 .text._ZNK2bn21palette_bitmap_bg_ptr5hw_idEv
                0x00000000       0x40 bn_bgs_manager.o
 .text._ZNK2bn23sp_direct_bitmap_bg_ptr5hw_idEv
                0x00000000       0x40 bn_bgs_manager.o
 .text._ZNK2bn23dp_direct_bitmap_bg_ptr5hw_idEv
                0x00000000       0x40 bn_bgs_manager.o
 .text._ZN2bn13ostringstream6appendILi12EEEvNS_7fixed_tIXT_EEE
                0x00000000       0xa0 bn_bgs_manager.o
 .text._ZN3_bn6assert9show_argsIA27_cN2bn7fixed_tILi12EEEEEvPKcS7_S7_iRKT_RKT0_
                0x00000000       0x54 bn_bgs_manager.o
 .rodata._ZN2bn11bgs_manager20set_horizontal_scaleEPvNS_7fixed_tILi12EEE.str1.4
                0x00000000       0x67 bn_bgs_manager.o
 .text._ZN2bn11bgs_manager20set_horizontal_scaleEPvNS_7fixed_tILi12EEE
                0x00000000      0x114 bn_bgs_manager.o
 .text._ZN2bn13affine_bg_ptr20set_horizontal_scaleENS_7fixed_tILi12EEE
                0x00000000       0x10 bn_bgs_manager.o
 .text._ZN2bn21palette_bitmap_bg_ptr20set_horizontal_scaleENS_7fixed_tILi12EEE
                0x00000000       0x10 bn_bgs_manager.o
 .text._ZN2bn23sp_direct_bitmap_bg_ptr20set_horizontal_scaleENS_7fixed_tILi12EEE
                0x00000000       0x10 bn_bgs_manager.o
 .text._ZN2bn23dp_direct_bitmap_bg_ptr20set_horizontal_scaleENS_7fixed_tILi12EEE
                0x00000000       0x10 bn_bgs_manager.o
 .text._ZN3_bn6assert9show_argsIA25_cN2bn7fixed_tILi12EEEEEvPKcS7_S7_iRKT_RKT0_
                0x00000000       0x54 bn_bgs_manager.o
 .rodata._ZN2bn11bgs_manager9set_scaleEPvNS_7fixed_tILi12EEES3_.str1.4
                0x00000000       0x39 bn_bgs_manager.o
 .text._ZN2bn11bgs_manager9set_scaleEPvNS_7fixed_tILi12EEES3_
                0x00000000      0x1f4 bn_bgs_manager.o
 .text._ZN2bn13affine_bg_ptr9set_scaleENS_7fixed_tILi12EEES2_
                0x00000000       0x10 bn_bgs_manager.o
 .text._ZN2bn21palette_bitmap_bg_ptr9set_scaleENS_7fixed_tILi12EEES2_
                0x00000000       0x10 bn_bgs_manager.o
 .text._ZN2bn23sp_direct_bitmap_bg_ptr9set_scaleENS_7fixed_tILi12EEES2_
                0x00000000       0x10 bn_bgs_manager.o
 .text._ZN2bn23sp_direct_bitmap_bg_ptr6expandEv
                0x00000000       0x14 bn_bgs_manager.o
 .text._ZN2bn23dp_direct_bitmap_bg_ptr9set_scaleENS_7fixed_tILi12EEES2_
                0x00000000       0x10 bn_bgs_manager.o
 .text._ZN2bn23dp_direct_bitmap_bg_ptr6expandEv
                0x00000000       0x18 bn_bgs_manager.o
 .rodata._ZN2bn11bgs_manager18set_vertical_scaleEPvNS_7fixed_tILi12EEE.str1.4
                0x00000000       0x13 bn_bgs_manager.o
 .text._ZN2bn11bgs_manager18set_vertical_scaleEPvNS_7fixed_tILi12EEE
                0x00000000      0x114 bn_bgs_manager.o
 .text._ZN2bn13affine_bg_ptr18set_vertical_scaleENS_7fixed_tILi12EEE
                0x00000000       0x10 bn_bgs_manager.o
 .text._ZN2bn21palette_bitmap_bg_ptr18set_vertical_scaleENS_7fixed_tILi12EEE
                0x00000000       0x10 bn_bgs_manager.o
 .text._ZN2bn23sp_direct_bitmap_bg_ptr18set_vertical_scaleENS_7fixed_tILi12EEE
                0x00000000       0x10 bn_bgs_manager.o
 .text._ZN2bn23dp_direct_bitmap_bg_ptr18set_vertical_scaleENS_7fixed_tILi12EEE
                0x00000000       0x10 bn_bgs_manager.o
 .text._ZN3_bn6assert9show_argsIA16_cN2bn7fixed_tILi12EEEEEvPKcS7_S7_iRKT_RKT0_
                0x00000000       0x54 bn_bgs_manager.o
 .rodata._ZN2bn11bgs_manager9set_scaleEPvNS_7fixed_tILi12EEE.str1.4
                0x00000000       0x1c bn_bgs_manager.o
 .text._ZN2bn11bgs_manager9set_scaleEPvNS_7fixed_tILi12EEE
                0x00000000      0x188 bn_bgs_manager.o
 .text._ZN2bn13affine_bg_ptr9set_scaleENS_7fixed_tILi12EEE
                0x00000000       0x10 bn_bgs_manager.o
 .text._ZN2bn21palette_bitmap_bg_ptr9set_scaleENS_7fixed_tILi12EEE
                0x00000000       0x10 bn_bgs_manager.o
 .text._ZN2bn23sp_direct_bitmap_bg_ptr9set_scaleENS_7fixed_tILi12EEE
                0x00000000       0x10 bn_bgs_manager.o
 .text._ZN2bn23dp_direct_bitmap_bg_ptr9set_scaleENS_7fixed_tILi12EEE
                0x00000000       0x10 bn_bgs_manager.o
 .text._ZN3_bn6assert9show_argsIA17_cN2bn7fixed_tILi12EEEEEvPKcS7_S7_iRKT_RKT0_
                0x00000000       0x54 bn_bgs_manager.o
 .rodata._ZN2bn11bgs_manager12_GLOBAL__N_19item_type17update_affine_mapEb.str1.4
                0x00000000       0x39 bn_bgs_manager.o
 .text._ZN2bn11bgs_manager12_GLOBAL__N_19item_type17update_affine_mapEb
                0x00000000      0x288 bn_bgs_manager.o
 .rodata._ZN2bn11bgs_manager14set_affine_mapEPvONS_17affine_bg_map_ptrE.str1.4
                0x00000000       0x3d bn_bgs_manager.o
 .text._ZN2bn11bgs_manager14set_affine_mapEPvONS_17affine_bg_map_ptrE
                0x00000000       0xac bn_bgs_manager.o
 .text._ZN2bn13affine_bg_ptr7set_mapEONS_17affine_bg_map_ptrE
                0x00000000       0x10 bn_bgs_manager.o
 .text._ZN2bn13affine_bg_ptr7set_mapERKNS_18affine_bg_map_itemE
                0x00000000      0x108 bn_bgs_manager.o
 .text._ZN2bn13affine_bg_ptr7set_mapERKNS_18affine_bg_map_itemEi
                0x00000000      0x114 bn_bgs_manager.o
 .text._ZN2bn13affine_bg_ptr8set_itemERKNS_14affine_bg_itemE
                0x00000000      0x13c bn_bgs_manager.o
 .text._ZN2bn13affine_bg_ptr8set_itemERKNS_14affine_bg_itemEi
                0x00000000      0x14c bn_bgs_manager.o
 .text._ZN2bn11bgs_manager14set_affine_mapEPvRKNS_17affine_bg_map_ptrE
                0x00000000       0xac bn_bgs_manager.o
 .text._ZN2bn13affine_bg_ptr7set_mapERKNS_17affine_bg_map_ptrE
                0x00000000       0x10 bn_bgs_manager.o
 .text._ZN2bn11bgs_manager12_GLOBAL__N_19item_typeC2EONS_17affine_bg_builderEONS_17affine_bg_map_ptrE.isra.0
                0x00000000      0x214 bn_bgs_manager.o
 .text._ZN3_bn6assert9show_argsIA38_cN2bn7fixed_tILi12EEEEEvPKcS7_S7_iRKT_RKT0_
                0x00000000       0x54 bn_bgs_manager.o
 .rodata._ZN2bn11bgs_manager18set_rotation_angleEPvNS_7fixed_tILi12EEE.str1.4
                0x00000000       0x76 bn_bgs_manager.o
 .text._ZN2bn11bgs_manager18set_rotation_angleEPvNS_7fixed_tILi12EEE
                0x00000000      0x194 bn_bgs_manager.o
 .text._ZN2bn13affine_bg_ptr18set_rotation_angleENS_7fixed_tILi12EEE
                0x00000000       0x10 bn_bgs_manager.o
 .text._ZN2bn13affine_bg_ptr23set_rotation_angle_safeENS_7fixed_tILi12EEE
                0x00000000       0x34 bn_bgs_manager.o
 .text._ZN2bn21palette_bitmap_bg_ptr18set_rotation_angleENS_7fixed_tILi12EEE
                0x00000000       0x10 bn_bgs_manager.o
 .text._ZN2bn21palette_bitmap_bg_ptr23set_rotation_angle_safeENS_7fixed_tILi12EEE
                0x00000000       0x34 bn_bgs_manager.o
 .text._ZN2bn23sp_direct_bitmap_bg_ptr18set_rotation_angleENS_7fixed_tILi12EEE
                0x00000000       0x10 bn_bgs_manager.o
 .text._ZN2bn23sp_direct_bitmap_bg_ptr23set_rotation_angle_safeENS_7fixed_tILi12EEE
                0x00000000       0x34 bn_bgs_manager.o
 .text._ZN2bn23dp_direct_bitmap_bg_ptr18set_rotation_angleENS_7fixed_tILi12EEE
                0x00000000       0x10 bn_bgs_manager.o
 .text._ZN2bn23dp_direct_bitmap_bg_ptr23set_rotation_angle_safeENS_7fixed_tILi12EEE
                0x00000000       0x34 bn_bgs_manager.o
 .text._ZN3_bn6assert9show_argsIA17_cEEvPKcS4_S4_iRKT_
                0x00000000       0x48 bn_bgs_manager.o
 .text._ZN3_bn6assert9show_argsIA15_cEEvPKcS4_S4_iRKT_
                0x00000000       0x48 bn_bgs_manager.o
 .text._ZN2bn11bgs_manager15create_optionalEONS_25palette_bitmap_bg_builderE
                0x00000000      0x29c bn_bgs_manager.o
 .text._ZN2bn11bgs_manager6createEONS_17affine_bg_builderE
                0x00000000      0x124 bn_bgs_manager.o
 .text._ZN2bn13affine_bg_ptr6createERKNS_14affine_bg_itemE
                0x00000000       0xac bn_bgs_manager.o
 .text._ZN2bn13affine_bg_ptr6createENS_17affine_bg_map_ptrE
                0x00000000       0xac bn_bgs_manager.o
 .text._ZN2bn13affine_bg_ptr6createENS_7fixed_tILi12EEES2_RKNS_14affine_bg_itemE
                0x00000000       0xbc bn_bgs_manager.o
 .text._ZN2bn13affine_bg_ptr6createERKNS_13fixed_point_tILi12EEERKNS_14affine_bg_itemE
                0x00000000       0xb4 bn_bgs_manager.o
 .text._ZN2bn13affine_bg_ptr6createENS_7fixed_tILi12EEES2_NS_17affine_bg_map_ptrE
                0x00000000       0xb0 bn_bgs_manager.o
 .text._ZN2bn13affine_bg_ptr6createERKNS_13fixed_point_tILi12EEENS_17affine_bg_map_ptrE
                0x00000000       0xb0 bn_bgs_manager.o
 .text._ZN2bn13affine_bg_ptr6createERKNS_17affine_bg_builderE
                0x00000000       0xc4 bn_bgs_manager.o
 .text._ZNK2bn17affine_bg_builder5buildEv
                0x00000000       0x10 bn_bgs_manager.o
 .text._ZN2bn13affine_bg_ptr6createEONS_17affine_bg_builderE
                0x00000000       0x14 bn_bgs_manager.o
 .text._ZN2bn17affine_bg_builder13release_buildEv
                0x00000000       0x14 bn_bgs_manager.o
 .text._ZN2bn13affine_bg_ptr6createERKNS_14affine_bg_itemEi
                0x00000000      0x110 bn_bgs_manager.o
 .text._ZN2bn13affine_bg_ptr6createENS_7fixed_tILi12EEES2_RKNS_14affine_bg_itemEi
                0x00000000      0x124 bn_bgs_manager.o
 .text._ZN2bn13affine_bg_ptr6createERKNS_13fixed_point_tILi12EEERKNS_14affine_bg_itemEi
                0x00000000      0x120 bn_bgs_manager.o
 .text._ZNK2bn14affine_bg_item9create_bgENS_7fixed_tILi12EEES2_i
                0x00000000      0x124 bn_bgs_manager.o
 .text._ZNK2bn14affine_bg_item9create_bgEi
                0x00000000      0x110 bn_bgs_manager.o
 .text._ZNK2bn14affine_bg_item9create_bgENS_7fixed_tILi12EEES2_
                0x00000000       0xbc bn_bgs_manager.o
 .text._ZNK2bn14affine_bg_item9create_bgEv
                0x00000000       0xac bn_bgs_manager.o
 .text._ZNK2bn14affine_bg_item9create_bgERKNS_13fixed_point_tILi12EEEi
                0x00000000      0x114 bn_bgs_manager.o
 .text._ZNK2bn14affine_bg_item9create_bgERKNS_13fixed_point_tILi12EEE
                0x00000000       0xb4 bn_bgs_manager.o
 .rodata._ZN2bn11bgs_manager15create_optionalEONS_17affine_bg_builderE.str1.4
                0x00000000       0x10 bn_bgs_manager.o
 .text._ZN2bn11bgs_manager15create_optionalEONS_17affine_bg_builderE
                0x00000000       0xc8 bn_bgs_manager.o
 .text._ZN2bn14regular_bg_ptr6createERKNS_15regular_bg_itemE
                0x00000000       0x74 bn_bgs_manager.o
 .text._ZN2bn14regular_bg_ptr6createENS_18regular_bg_map_ptrE
                0x00000000       0x7c bn_bgs_manager.o
 .text._ZN2bn14regular_bg_ptr6createENS_7fixed_tILi12EEES2_RKNS_15regular_bg_itemE
                0x00000000       0x78 bn_bgs_manager.o
 .text._ZN2bn14regular_bg_ptr6createERKNS_13fixed_point_tILi12EEERKNS_15regular_bg_itemE
                0x00000000       0x78 bn_bgs_manager.o
 .text._ZN2bn14regular_bg_ptr6createENS_7fixed_tILi12EEES2_NS_18regular_bg_map_ptrE
                0x00000000       0x80 bn_bgs_manager.o
 .text._ZN2bn14regular_bg_ptr6createERKNS_13fixed_point_tILi12EEENS_18regular_bg_map_ptrE
                0x00000000       0x80 bn_bgs_manager.o
 .text._ZN2bn14regular_bg_ptr6createERKNS_18regular_bg_builderE
                0x00000000       0xa0 bn_bgs_manager.o
 .text._ZNK2bn18regular_bg_builder5buildEv
                0x00000000       0x10 bn_bgs_manager.o
 .text._ZN2bn14regular_bg_ptr6createEONS_18regular_bg_builderE
                0x00000000       0x14 bn_bgs_manager.o
 .text._ZN2bn18regular_bg_builder13release_buildEv
                0x00000000       0x14 bn_bgs_manager.o
 .text._ZN2bn14regular_bg_ptr6createERKNS_15regular_bg_itemEi
                0x00000000       0xc0 bn_bgs_manager.o
 .text._ZN2bn14regular_bg_ptr6createENS_7fixed_tILi12EEES2_RKNS_15regular_bg_itemEi
                0x00000000       0xd0 bn_bgs_manager.o
 .text._ZN2bn14regular_bg_ptr6createERKNS_13fixed_point_tILi12EEERKNS_15regular_bg_itemEi
                0x00000000       0xcc bn_bgs_manager.o
 .text._ZNK2bn15regular_bg_item9create_bgENS_7fixed_tILi12EEES2_i
                0x00000000       0xd0 bn_bgs_manager.o
 .text._ZNK2bn15regular_bg_item9create_bgEi
                0x00000000       0xc0 bn_bgs_manager.o
 .text._ZNK2bn15regular_bg_item9create_bgEv
                0x00000000       0x74 bn_bgs_manager.o
 .text._ZNK2bn15regular_bg_item9create_bgERKNS_13fixed_point_tILi12EEEi
                0x00000000       0xcc bn_bgs_manager.o
 .text._ZNK2bn15regular_bg_item9create_bgERKNS_13fixed_point_tILi12EEE
                0x00000000       0x78 bn_bgs_manager.o
 .rodata._ZN2bn11bgs_manager6createEONS_27sp_direct_bitmap_bg_builderE.str1.4
                0x00000000       0x19 bn_bgs_manager.o
 .text._ZN2bn11bgs_manager6createEONS_27sp_direct_bitmap_bg_builderE
                0x00000000      0x230 bn_bgs_manager.o
 .text._ZN2bn23sp_direct_bitmap_bg_ptr6createEv
                0x00000000       0x70 bn_bgs_manager.o
 .text._ZN2bn23sp_direct_bitmap_bg_ptr6createERKNS_27sp_direct_bitmap_bg_builderE
                0x00000000       0x70 bn_bgs_manager.o
 .text._ZNK2bn27sp_direct_bitmap_bg_builder5buildEv
                0x00000000       0x10 bn_bgs_manager.o
 .text._ZN2bn23sp_direct_bitmap_bg_ptr6createEONS_27sp_direct_bitmap_bg_builderE
                0x00000000       0x14 bn_bgs_manager.o
 .text._ZN2bn27sp_direct_bitmap_bg_builder13release_buildEv
                0x00000000       0x14 bn_bgs_manager.o
 .text._ZN2bn11bgs_manager6createEONS_27dp_direct_bitmap_bg_builderE
                0x00000000      0x230 bn_bgs_manager.o
 .text._ZN2bn23dp_direct_bitmap_bg_ptr6createEv
                0x00000000       0x70 bn_bgs_manager.o
 .text._ZN2bn23dp_direct_bitmap_bg_ptr6createERKNS_27dp_direct_bitmap_bg_builderE
                0x00000000       0x70 bn_bgs_manager.o
 .text._ZNK2bn27dp_direct_bitmap_bg_builder5buildEv
                0x00000000       0x10 bn_bgs_manager.o
 .text._ZN2bn23dp_direct_bitmap_bg_ptr6createEONS_27dp_direct_bitmap_bg_builderE
                0x00000000       0x14 bn_bgs_manager.o
 .text._ZN2bn27dp_direct_bitmap_bg_builder13release_buildEv
                0x00000000       0x14 bn_bgs_manager.o
 .text._ZN2bn11bgs_manager6createEONS_25palette_bitmap_bg_builderE
                0x00000000      0x2bc bn_bgs_manager.o
 .text._ZN2bn21palette_bitmap_bg_ptr6createERKNS_15bg_palette_itemE
                0x00000000       0xd8 bn_bgs_manager.o
 .text._ZN2bn21palette_bitmap_bg_ptr6createERKNS_14bg_palette_ptrE
                0x00000000       0xd8 bn_bgs_manager.o
 .text._ZN2bn21palette_bitmap_bg_ptr6createEONS_14bg_palette_ptrE
                0x00000000       0xd8 bn_bgs_manager.o
 .text._ZN2bn21palette_bitmap_bg_ptr6createERKNS_25palette_bitmap_bg_builderE
                0x00000000       0xb4 bn_bgs_manager.o
 .text._ZNK2bn25palette_bitmap_bg_builder5buildEv
                0x00000000       0x10 bn_bgs_manager.o
 .text._ZN2bn21palette_bitmap_bg_ptr6createEONS_25palette_bitmap_bg_builderE
                0x00000000       0x14 bn_bgs_manager.o
 .text._ZN2bn25palette_bitmap_bg_builder13release_buildEv
                0x00000000       0x14 bn_bgs_manager.o
 .text._ZN2bn11bgs_manager15create_optionalEONS_18regular_bg_builderE
                0x00000000      0x200 bn_bgs_manager.o
 .text._ZN2bn11bgs_manager15create_optionalEONS_27dp_direct_bitmap_bg_builderE
                0x00000000      0x224 bn_bgs_manager.o
 .text._ZN2bn11bgs_manager15create_optionalEONS_27sp_direct_bitmap_bg_builderE
                0x00000000      0x224 bn_bgs_manager.o
 .text._ZN3_bn6assert9show_argsIA39_ciEEvPKcS4_S4_iRKT_RKT0_
                0x00000000       0x54 bn_bgs_manager.o
 .rodata._ZNK2bn21palette_bitmap_bg_ptr4pageEv.str1.4
                0x00000000       0x27 bn_bgs_manager.o
 .text._ZNK2bn21palette_bitmap_bg_ptr4pageEv
                0x00000000       0x50 bn_bgs_manager.o
 .text._ZNK2bn23dp_direct_bitmap_bg_ptr4pageEv
                0x00000000       0x50 bn_bgs_manager.o
 .text._ZN2bn23dp_direct_bitmap_bg_ptr4pageEv
                0x00000000       0x50 bn_bgs_manager.o
 .text._ZN2bn21palette_bitmap_bg_ptr4pageEv
                0x00000000       0x50 bn_bgs_manager.o
 .text._ZN3_bn6assert9show_argsIA14_cEEvPKcS4_S4_iRKT_
                0x00000000       0x48 bn_bgs_manager.o
 .text._ZN3_bn6assert9show_argsIJA23_ciA4_ciEEEvPKcS5_S5_iDpRKT_
                0x00000000       0x58 bn_bgs_manager.o
 .rodata._ZN2bn5eraseIPNS_11bgs_manager12_GLOBAL__N_19item_typeEEENS_7ivectorIT_E9size_typeERS7_RKS6_.constprop.0.isra.0.str1.4
                0x00000000       0x6f bn_bgs_manager.o
 .text._ZN2bn5eraseIPNS_11bgs_manager12_GLOBAL__N_19item_typeEEENS_7ivectorIT_E9size_typeERS7_RKS6_.constprop.0.isra.0
                0x00000000      0x144 bn_bgs_manager.o
 .rodata._ZN2bn11bgs_manager15decrease_usagesEPv.str1.4
                0x00000000       0x29 bn_bgs_manager.o
 .text._ZN2bn11bgs_manager15decrease_usagesEPv
                0x00000000       0xe8 bn_bgs_manager.o
 .text._ZN2bn13affine_bg_ptraSERKS0_
                0x00000000       0x28 bn_bgs_manager.o
 .text._ZN2bn13affine_bg_ptrD2Ev
                0x00000000       0x18 bn_bgs_manager.o
 .text._ZN2bn13affine_bg_ptr15create_optionalERKNS_14affine_bg_itemE
                0x00000000       0xc8 bn_bgs_manager.o
 .text._ZNK2bn14affine_bg_item18create_bg_optionalEv
                0x00000000       0x10 bn_bgs_manager.o
 .text._ZN2bn13affine_bg_ptr15create_optionalERKNS_14affine_bg_itemEi
                0x00000000      0x128 bn_bgs_manager.o
 .text._ZNK2bn14affine_bg_item18create_bg_optionalEi
                0x00000000       0x10 bn_bgs_manager.o
 .text._ZN2bn13affine_bg_ptr15create_optionalENS_17affine_bg_map_ptrE
                0x00000000       0xc4 bn_bgs_manager.o
 .text._ZN2bn13affine_bg_ptr15create_optionalENS_7fixed_tILi12EEES2_RKNS_14affine_bg_itemE
                0x00000000       0xe4 bn_bgs_manager.o
 .text._ZN2bn13affine_bg_ptr15create_optionalENS_7fixed_tILi12EEES2_RKNS_14affine_bg_itemEi
                0x00000000      0x14c bn_bgs_manager.o
 .text._ZNK2bn14affine_bg_item18create_bg_optionalENS_7fixed_tILi12EEES2_i
                0x00000000       0x24 bn_bgs_manager.o
 .text._ZN2bn13affine_bg_ptr15create_optionalERKNS_13fixed_point_tILi12EEERKNS_14affine_bg_itemE
                0x00000000       0xdc bn_bgs_manager.o
 .text._ZNK2bn14affine_bg_item18create_bg_optionalERKNS_13fixed_point_tILi12EEE
                0x00000000       0x18 bn_bgs_manager.o
 .text._ZN2bn13affine_bg_ptr15create_optionalERKNS_13fixed_point_tILi12EEERKNS_14affine_bg_itemEi
                0x00000000      0x140 bn_bgs_manager.o
 .text._ZNK2bn14affine_bg_item18create_bg_optionalERKNS_13fixed_point_tILi12EEEi
                0x00000000       0x18 bn_bgs_manager.o
 .text._ZN2bn13affine_bg_ptr15create_optionalENS_7fixed_tILi12EEES2_NS_17affine_bg_map_ptrE
                0x00000000       0xe8 bn_bgs_manager.o
 .text._ZN2bn13affine_bg_ptr15create_optionalERKNS_13fixed_point_tILi12EEENS_17affine_bg_map_ptrE
                0x00000000       0xd8 bn_bgs_manager.o
 .text._ZN2bn13affine_bg_ptr15create_optionalERKNS_17affine_bg_builderE
                0x00000000       0xe8 bn_bgs_manager.o
 .text._ZNK2bn17affine_bg_builder14build_optionalEv
                0x00000000       0x10 bn_bgs_manager.o
 .text._ZN2bn13affine_bg_ptr15create_optionalEONS_17affine_bg_builderE
                0x00000000       0x38 bn_bgs_manager.o
 .text._ZN2bn14regular_bg_ptraSERKS0_
                0x00000000       0x28 bn_bgs_manager.o
 .text._ZN2bn14regular_bg_ptrD2Ev
                0x00000000       0x18 bn_bgs_manager.o
 .text._ZN2bn14regular_bg_ptr15create_optionalERKNS_15regular_bg_itemE
                0x00000000       0x90 bn_bgs_manager.o
 .text._ZNK2bn15regular_bg_item18create_bg_optionalEv
                0x00000000       0x10 bn_bgs_manager.o
 .text._ZN2bn14regular_bg_ptr15create_optionalERKNS_15regular_bg_itemEi
                0x00000000       0xe4 bn_bgs_manager.o
 .text._ZNK2bn15regular_bg_item18create_bg_optionalEi
                0x00000000       0x10 bn_bgs_manager.o
 .text._ZN2bn14regular_bg_ptr15create_optionalENS_18regular_bg_map_ptrE
                0x00000000       0x98 bn_bgs_manager.o
 .text._ZN2bn14regular_bg_ptr15create_optionalENS_7fixed_tILi12EEES2_RKNS_15regular_bg_itemE
                0x00000000       0xac bn_bgs_manager.o
 .text._ZN2bn14regular_bg_ptr15create_optionalENS_7fixed_tILi12EEES2_RKNS_15regular_bg_itemEi
                0x00000000       0xfc bn_bgs_manager.o
 .text._ZNK2bn15regular_bg_item18create_bg_optionalENS_7fixed_tILi12EEES2_i
                0x00000000       0x24 bn_bgs_manager.o
 .text._ZN2bn14regular_bg_ptr15create_optionalERKNS_13fixed_point_tILi12EEERKNS_15regular_bg_itemE
                0x00000000       0xa0 bn_bgs_manager.o
 .text._ZNK2bn15regular_bg_item18create_bg_optionalERKNS_13fixed_point_tILi12EEE
                0x00000000       0x18 bn_bgs_manager.o
 .text._ZN2bn14regular_bg_ptr15create_optionalERKNS_13fixed_point_tILi12EEERKNS_15regular_bg_itemEi
                0x00000000       0xfc bn_bgs_manager.o
 .text._ZNK2bn15regular_bg_item18create_bg_optionalERKNS_13fixed_point_tILi12EEEi
                0x00000000       0x18 bn_bgs_manager.o
 .text._ZN2bn14regular_bg_ptr15create_optionalENS_7fixed_tILi12EEES2_NS_18regular_bg_map_ptrE
                0x00000000       0xa8 bn_bgs_manager.o
 .text._ZN2bn14regular_bg_ptr15create_optionalERKNS_13fixed_point_tILi12EEENS_18regular_bg_map_ptrE
                0x00000000       0xa8 bn_bgs_manager.o
 .text._ZN2bn14regular_bg_ptr15create_optionalERKNS_18regular_bg_builderE
                0x00000000       0xc4 bn_bgs_manager.o
 .text._ZNK2bn18regular_bg_builder14build_optionalEv
                0x00000000       0x10 bn_bgs_manager.o
 .text._ZN2bn14regular_bg_ptr15create_optionalEONS_18regular_bg_builderE
                0x00000000       0x38 bn_bgs_manager.o
 .text._ZN2bn21palette_bitmap_bg_ptraSERKS0_
                0x00000000       0x28 bn_bgs_manager.o
 .text._ZN2bn21palette_bitmap_bg_ptrD2Ev
                0x00000000       0x18 bn_bgs_manager.o
 .text._ZN2bn21palette_bitmap_bg_ptr15create_optionalERKNS_15bg_palette_itemE
                0x00000000       0xe4 bn_bgs_manager.o
 .text._ZN2bn21palette_bitmap_bg_ptr15create_optionalERKNS_14bg_palette_ptrE
                0x00000000       0xf0 bn_bgs_manager.o
 .text._ZN2bn21palette_bitmap_bg_ptr15create_optionalEONS_14bg_palette_ptrE
                0x00000000       0xec bn_bgs_manager.o
 .text._ZN2bn21palette_bitmap_bg_ptr15create_optionalERKNS_25palette_bitmap_bg_builderE
                0x00000000       0xd8 bn_bgs_manager.o
 .text._ZNK2bn25palette_bitmap_bg_builder14build_optionalEv
                0x00000000       0x10 bn_bgs_manager.o
 .text._ZN2bn21palette_bitmap_bg_ptr15create_optionalEONS_25palette_bitmap_bg_builderE
                0x00000000       0x38 bn_bgs_manager.o
 .text._ZN2bn25palette_bitmap_bg_painterD2Ev
                0x00000000       0x20 bn_bgs_manager.o
 .text._ZN2bn23sp_direct_bitmap_bg_ptraSERKS0_
                0x00000000       0x28 bn_bgs_manager.o
 .text._ZN2bn23sp_direct_bitmap_bg_ptrD2Ev
                0x00000000       0x18 bn_bgs_manager.o
 .text._ZN2bn23sp_direct_bitmap_bg_ptr15create_optionalEv
                0x00000000       0x94 bn_bgs_manager.o
 .text._ZN2bn23sp_direct_bitmap_bg_ptr15create_optionalERKNS_27sp_direct_bitmap_bg_builderE
                0x00000000       0x98 bn_bgs_manager.o
 .text._ZNK2bn27sp_direct_bitmap_bg_builder14build_optionalEv
                0x00000000       0x10 bn_bgs_manager.o
 .text._ZN2bn23sp_direct_bitmap_bg_ptr15create_optionalEONS_27sp_direct_bitmap_bg_builderE
                0x00000000       0x38 bn_bgs_manager.o
 .text._ZN2bn23dp_direct_bitmap_bg_ptraSERKS0_
                0x00000000       0x28 bn_bgs_manager.o
 .text._ZN2bn23dp_direct_bitmap_bg_ptrD2Ev
                0x00000000       0x18 bn_bgs_manager.o
 .text._ZN2bn23dp_direct_bitmap_bg_ptr15create_optionalEv
                0x00000000       0x94 bn_bgs_manager.o
 .text._ZN2bn23dp_direct_bitmap_bg_ptr15create_optionalERKNS_27dp_direct_bitmap_bg_builderE
                0x00000000       0x98 bn_bgs_manager.o
 .text._ZNK2bn27dp_direct_bitmap_bg_builder14build_optionalEv
                0x00000000       0x10 bn_bgs_manager.o
 .text._ZN2bn23dp_direct_bitmap_bg_ptr15create_optionalEONS_27dp_direct_bitmap_bg_builderE
                0x00000000       0x38 bn_bgs_manager.o
 .text._ZN2bn27dp_direct_bitmap_bg_painterD2Ev
                0x00000000       0x20 bn_bgs_manager.o
 .text._ZN2bn17affine_bg_builder22release_build_optionalEv
                0x00000000       0x38 bn_bgs_manager.o
 .text._ZN2bn18regular_bg_builder22release_build_optionalEv
                0x00000000       0x38 bn_bgs_manager.o
 .text._ZN2bn25palette_bitmap_bg_builder22release_build_optionalEv
                0x00000000       0x38 bn_bgs_manager.o
 .text._ZN2bn27sp_direct_bitmap_bg_builder22release_build_optionalEv
                0x00000000       0x38 bn_bgs_manager.o
 .text._ZN2bn27dp_direct_bitmap_bg_builder22release_build_optionalEv
                0x00000000       0x38 bn_bgs_manager.o
 .text._ZNK2bn14affine_bg_item18create_bg_optionalENS_7fixed_tILi12EEES2_
                0x00000000       0xe4 bn_bgs_manager.o
 .text._ZNK2bn15regular_bg_item18create_bg_optionalENS_7fixed_tILi12EEES2_
                0x00000000       0xac bn_bgs_manager.o
 .text._ZN2bn11bgs_manager12set_priorityEPvi
                0x00000000       0x68 bn_bgs_manager.o
 .text._ZN2bn11bgs_manager22set_regular_attributesEPvRKNS_21regular_bg_attributesE
                0x00000000       0x8c bn_bgs_manager.o
 .text._ZN2bn11bgs_manager21set_affine_attributesEPvRKNS_20affine_bg_attributesE
                0x00000000      0x100 bn_bgs_manager.o
 .text._ZN2bn13affine_bg_ptr14set_attributesERKNS_20affine_bg_attributesE
                0x00000000       0x10 bn_bgs_manager.o
 .text._ZN2bn11bgs_manager21set_bitmap_attributesEPvRKNS_20bitmap_bg_attributesE
                0x00000000       0x88 bn_bgs_manager.o
 .text._ZN2bn21palette_bitmap_bg_ptr14set_attributesERKNS_20bitmap_bg_attributesE
                0x00000000       0x10 bn_bgs_manager.o
 .text._ZN2bn23sp_direct_bitmap_bg_ptr14set_attributesERKNS_20bitmap_bg_attributesE
                0x00000000       0x10 bn_bgs_manager.o
 .text._ZN2bn23dp_direct_bitmap_bg_ptr14set_attributesERKNS_20bitmap_bg_attributesE
                0x00000000       0x10 bn_bgs_manager.o
 .text._ZN2bn14regular_bg_ptr14set_attributesERKNS_21regular_bg_attributesE
                0x00000000       0x90 bn_bgs_manager.o
 .text._ZN2bn11bgs_manager11set_z_orderEPvi
                0x00000000       0x6c bn_bgs_manager.o
 .text._ZN2bn13affine_bg_ptr11set_z_orderEi
                0x00000000       0x6c bn_bgs_manager.o
 .text._ZN2bn14regular_bg_ptr11set_z_orderEi
                0x00000000       0x6c bn_bgs_manager.o
 .text._ZN2bn13affine_bg_ptr12set_priorityEi
                0x00000000       0x68 bn_bgs_manager.o
 .text._ZN2bn14regular_bg_ptr12set_priorityEi
                0x00000000       0x68 bn_bgs_manager.o
 .text._ZN2bn21palette_bitmap_bg_ptr12set_priorityEi
                0x00000000       0x68 bn_bgs_manager.o
 .text._ZN2bn23sp_direct_bitmap_bg_ptr12set_priorityEi
                0x00000000       0x68 bn_bgs_manager.o
 .text._ZN2bn23dp_direct_bitmap_bg_ptr12set_priorityEi
                0x00000000       0x68 bn_bgs_manager.o
 .rodata        0x00000000       0x10 bn_bgs_manager.o
 .group         0x00000000        0xc bn_cameras_manager.o
 .text          0x00000000        0x0 bn_cameras_manager.o
 .data          0x00000000        0x0 bn_cameras_manager.o
 .bss           0x00000000        0x0 bn_cameras_manager.o
 .text._ZN2bn7cameras16used_items_countEv
                0x00000000       0x10 bn_cameras_manager.o
 .text._ZN2bn7cameras21available_items_countEv
                0x00000000        0xc bn_cameras_manager.o
 .text._ZN2bn10camera_ptr15create_optionalEv
                0x00000000       0x3c bn_cameras_manager.o
 .text._ZN2bn10camera_ptr15create_optionalENS_7fixed_tILi12EEES2_
                0x00000000       0x3c bn_cameras_manager.o
 .text._ZN2bn10camera_ptr15create_optionalERKNS_13fixed_point_tILi12EEE
                0x00000000       0x3c bn_cameras_manager.o
 .text._ZNK2bn10camera_ptr1xEv
                0x00000000       0x14 bn_cameras_manager.o
 .text._ZN2bn10camera_ptr5set_xENS_7fixed_tILi12EEE
                0x00000000       0x20 bn_cameras_manager.o
 .text._ZNK2bn10camera_ptr1yEv
                0x00000000       0x14 bn_cameras_manager.o
 .text._ZN2bn10camera_ptr5set_yENS_7fixed_tILi12EEE
                0x00000000       0x24 bn_cameras_manager.o
 .text._ZN2bn10camera_ptr12set_positionENS_7fixed_tILi12EEES2_
                0x00000000       0x3c bn_cameras_manager.o
 .text._ZN2bn10camera_ptr12set_positionERKNS_13fixed_point_tILi12EEE
                0x00000000       0x3c bn_cameras_manager.o
 .text._ZN2bn15cameras_manager16used_items_countEv
                0x00000000       0x10 bn_cameras_manager.o
 .text._ZN2bn15cameras_manager21available_items_countEv
                0x00000000        0xc bn_cameras_manager.o
 .text._ZN2bn15cameras_manager15create_optionalERKNS_13fixed_point_tILi12EEE
                0x00000000       0x40 bn_cameras_manager.o
 .text._ZN2bn15cameras_manager15increase_usagesEi
                0x00000000       0x18 bn_cameras_manager.o
 .text._ZN2bn15cameras_manager15decrease_usagesEi
                0x00000000       0x28 bn_cameras_manager.o
 .text._ZN2bn15cameras_manager8positionEi
                0x00000000       0x10 bn_cameras_manager.o
 .text._ZN2bn15cameras_manager5set_xEiNS_7fixed_tILi12EEE
                0x00000000       0x1c bn_cameras_manager.o
 .text._ZN2bn15cameras_manager5set_yEiNS_7fixed_tILi12EEE
                0x00000000       0x20 bn_cameras_manager.o
 .text._ZN2bn15cameras_manager12set_positionEiRKNS_13fixed_point_tILi12EEE
                0x00000000       0x38 bn_cameras_manager.o
 .text._ZN3_bn6assert9show_argsIA26_cEEvPKcS4_S4_iRKT_
                0x00000000       0x48 bn_cameras_manager.o
 .rodata._ZN2bn15cameras_manager6createERKNS_13fixed_point_tILi12EEE.str1.4
                0x00000000       0x3e bn_cameras_manager.o
 .text._ZN2bn15cameras_manager6createERKNS_13fixed_point_tILi12EEE
                0x00000000       0x5c bn_cameras_manager.o
 .text._ZN2bn10camera_ptr6createEv
                0x00000000       0x5c bn_cameras_manager.o
 .text._ZN2bn10camera_ptr6createENS_7fixed_tILi12EEES2_
                0x00000000       0x58 bn_cameras_manager.o
 .text._ZN2bn10camera_ptr6createERKNS_13fixed_point_tILi12EEE
                0x00000000       0x5c bn_cameras_manager.o
 .group         0x00000000        0xc bn_core.o
 .group         0x00000000        0xc bn_core.o
 .group         0x00000000        0xc bn_core.o
 .group         0x00000000        0xc bn_core.o
 .group         0x00000000        0xc bn_core.o
 .text          0x00000000        0x0 bn_core.o
 .data          0x00000000        0x0 bn_core.o
 .bss           0x00000000        0x0 bn_core.o
 .text._ZN2bn4core11skip_framesEv
                0x00000000        0xc bn_core.o
 .text._ZN2bn4core4initERKNS_8optionalINS_5colorEEE
                0x00000000       0x18 bn_core.o
 .text._ZN2bn4core4initERKNS_11string_viewE
                0x00000000       0x18 bn_core.o
 .text._ZN2bn4core5resetEv
                0x00000000       0x10 bn_core.o
 .text._ZN2bn4core10hard_resetEv
                0x00000000       0x10 bn_core.o
 .text._ZN2bn4core17current_cpu_usageEv
                0x00000000       0x2c bn_core.o
 .text._ZN2bn4core17current_cpu_ticksEv
                0x00000000       0x14 bn_core.o
 .text._ZN2bn4core14last_cpu_usageEv
                0x00000000       0x24 bn_core.o
 .text._ZN2bn4core14last_cpu_ticksEv
                0x00000000        0xc bn_core.o
 .text._ZN2bn4core17last_vblank_usageEv
                0x00000000       0x1c bn_core.o
 .text._ZN2bn4core17last_vblank_ticksEv
                0x00000000        0xc bn_core.o
 .text._ZN2bn4core18last_missed_framesEv
                0x00000000        0xc bn_core.o
 .text._ZN2bn4core15update_callbackEv
                0x00000000        0xc bn_core.o
 .text._ZN2bn4core19set_update_callbackEPFvvE
                0x00000000        0xc bn_core.o
 .text._ZN2bn4core15vblank_callbackEv
                0x00000000        0xc bn_core.o
 .text._ZN2bn4core19set_vblank_callbackEPFvvE
                0x00000000        0xc bn_core.o
 .text._ZN2bn4core13slow_game_pakEv
                0x00000000        0xc bn_core.o
 .text._ZN2bn4core11system_fontEv
                0x00000000        0x8 bn_core.o
 .text._ZN2bn4core15set_system_fontERKNS_11system_fontE
                0x00000000       0x18 bn_core.o
 .text._ZN2bn4core10assert_tagEv
                0x00000000        0x8 bn_core.o
 .text._ZN2bn4core14set_assert_tagERKNS_11string_viewE
                0x00000000        0xc bn_core.o
 .text._ZN2bn9core_lockC2Ev
                0x00000000       0x2c bn_core.o
 .text._ZN2bn9core_lockD2Ev
                0x00000000       0x50 bn_core.o
 .text._ZN2bn6memory11dma_enabledEv
                0x00000000        0xc bn_core.o
 .text._ZN2bn6memory15set_dma_enabledEb
                0x00000000        0xc bn_core.o
 .text._ZN2bn6assert8callbackEv
                0x00000000        0xc bn_core.o
 .text._ZN2bn6assert12set_callbackEPFvvE
                0x00000000        0xc bn_core.o
 .text._ZN3_bn6assert9show_argsIA20_cEEvPKcS4_S4_iRKT_
                0x00000000       0x48 bn_core.o
 .text._ZN3_bn6assert4showEPKci
                0x00000000       0x1c bn_core.o
 .text._ZN3_bn6assert4showEPKcS2_S2_i
                0x00000000       0x18 bn_core.o
 .text._ZN3_bn6assert4showEPKcS2_S2_iS2_
                0x00000000       0x28 bn_core.o
 .text._ZN3_bn6assert9show_argsIA22_ciEEvPKcS4_S4_iRKT_RKT0_
                0x00000000       0x54 bn_core.o
 .rodata._ZN2bn4core15set_skip_framesEi.str1.4
                0x00000000       0x46 bn_core.o
 .text._ZN2bn4core15set_skip_framesEi
                0x00000000       0x40 bn_core.o
 .text._ZN3_bn6assert9show_argsIA18_cEEvPKcS4_S4_iRKT_
                0x00000000       0x48 bn_core.o
 .rodata._ZN2bn4core5sleepERKNS_4spanIKNS_6keypad8key_typeEEE.str1.4
                0x00000000       0x1a bn_core.o
 .text._ZN2bn4core5sleepERKNS_4spanIKNS_6keypad8key_typeEEE
                0x00000000       0x94 bn_core.o
 .text._ZN2bn4core5sleepENS_6keypad8key_typeE
                0x00000000       0x1c bn_core.o
 .text._ZN3_bn6assert9show_argsIA32_cEEvPKcS4_S4_iRKT_
                0x00000000       0x48 bn_core.o
 .rodata._ZN2bn4core14log_stacktraceEv.str1.4
                0x00000000       0x30 bn_core.o
 .text._ZN2bn4core14log_stacktraceEv
                0x00000000       0x28 bn_core.o
 .group         0x00000000        0xc bn_display_manager.o
 .group         0x00000000        0xc bn_display_manager.o
 .group         0x00000000        0xc bn_display_manager.o
 .group         0x00000000        0xc bn_display_manager.o
 .group         0x00000000        0xc bn_display_manager.o
 .group         0x00000000        0xc bn_display_manager.o
 .group         0x00000000        0xc bn_display_manager.o
 .group         0x00000000        0xc bn_display_manager.o
 .group         0x00000000        0xc bn_display_manager.o
 .group         0x00000000        0xc bn_display_manager.o
 .group         0x00000000        0xc bn_display_manager.o
 .group         0x00000000        0xc bn_display_manager.o
 .group         0x00000000        0xc bn_display_manager.o
 .group         0x00000000        0xc bn_display_manager.o
 .group         0x00000000        0xc bn_display_manager.o
 .group         0x00000000        0xc bn_display_manager.o
 .group         0x00000000        0xc bn_display_manager.o
 .group         0x00000000        0xc bn_display_manager.o
 .text          0x00000000        0x0 bn_display_manager.o
 .data          0x00000000        0x0 bn_display_manager.o
 .bss           0x00000000        0x0 bn_display_manager.o
 .text._ZNK2bn6window7show_bgERKNS_14regular_bg_ptrE
                0x00000000       0x14 bn_display_manager.o
 .text._ZNK2bn6window7show_bgERKNS_13affine_bg_ptrE
                0x00000000       0x14 bn_display_manager.o
 .text._ZNK2bn6window7show_bgERKNS_21palette_bitmap_bg_ptrE
                0x00000000       0x14 bn_display_manager.o
 .text._ZNK2bn6window7show_bgERKNS_23sp_direct_bitmap_bg_ptrE
                0x00000000       0x14 bn_display_manager.o
 .text._ZNK2bn6window7show_bgERKNS_23dp_direct_bitmap_bg_ptrE
                0x00000000       0x14 bn_display_manager.o
 .text._ZN2bn6window11set_show_bgERKNS_14regular_bg_ptrEb
                0x00000000       0x14 bn_display_manager.o
 .text._ZN2bn6window11set_show_bgERKNS_13affine_bg_ptrEb
                0x00000000       0x14 bn_display_manager.o
 .text._ZN2bn6window11set_show_bgERKNS_21palette_bitmap_bg_ptrEb
                0x00000000       0x14 bn_display_manager.o
 .text._ZN2bn6window11set_show_bgERKNS_23sp_direct_bitmap_bg_ptrEb
                0x00000000       0x14 bn_display_manager.o
 .text._ZN2bn6window11set_show_bgERKNS_23dp_direct_bitmap_bg_ptrEb
                0x00000000       0x14 bn_display_manager.o
 .text._ZNK2bn6window12show_spritesEv
                0x00000000       0x18 bn_display_manager.o
 .text._ZN2bn6window16set_show_spritesEb
                0x00000000       0x34 bn_display_manager.o
 .text._ZNK2bn6window13show_blendingEv
                0x00000000       0x18 bn_display_manager.o
 .text._ZN2bn6window17set_show_blendingEb
                0x00000000       0x34 bn_display_manager.o
 .text._ZNK2bn6window8show_allEv
                0x00000000       0x1c bn_display_manager.o
 .text._ZN2bn6window12set_show_allEv
                0x00000000       0x34 bn_display_manager.o
 .text._ZNK2bn6window12show_nothingEv
                0x00000000       0x1c bn_display_manager.o
 .text._ZN2bn6window16set_show_nothingEv
                0x00000000       0x34 bn_display_manager.o
 .text._ZN2bn6window7restoreEv
                0x00000000       0xe8 bn_display_manager.o
 .text._ZN2bn8blending18transparency_alphaEv
                0x00000000       0x18 bn_display_manager.o
 .text._ZN2bn8blending15intensity_alphaEv
                0x00000000       0x18 bn_display_manager.o
 .text._ZN2bn8blending23transparency_top_weightEv
                0x00000000       0x18 bn_display_manager.o
 .text._ZN2bn8blending26transparency_bottom_weightEv
                0x00000000       0x28 bn_display_manager.o
 .text._ZN2bn8blending10fade_colorEv
                0x00000000       0x10 bn_display_manager.o
 .text._ZN2bn8blending14set_fade_colorENS0_15fade_color_typeE
                0x00000000       0x28 bn_display_manager.o
 .text._ZN2bn8blending20set_black_fade_colorEv
                0x00000000       0x24 bn_display_manager.o
 .text._ZN2bn8blending20set_white_fade_colorEv
                0x00000000       0x28 bn_display_manager.o
 .text._ZN2bn8blending10fade_alphaEv
                0x00000000        0xc bn_display_manager.o
 .text._ZN2bn8blending7restoreEv
                0x00000000       0xbc bn_display_manager.o
 .text._ZN2bn10bgs_mosaic18horizontal_stretchEv
                0x00000000        0xc bn_display_manager.o
 .text._ZN2bn10bgs_mosaic16vertical_stretchEv
                0x00000000        0xc bn_display_manager.o
 .text._ZN2bn10green_swap7enabledEv
                0x00000000        0xc bn_display_manager.o
 .text._ZN2bn10green_swap11set_enabledEb
                0x00000000       0x1c bn_display_manager.o
 .text._ZNK2bn11rect_window3topEv
                0x00000000       0x10 bn_display_manager.o
 .text._ZNK2bn11rect_window4leftEv
                0x00000000       0x10 bn_display_manager.o
 .text._ZNK2bn11rect_window8top_leftEv
                0x00000000       0x14 bn_display_manager.o
 .text._ZNK2bn11rect_window6bottomEv
                0x00000000       0x10 bn_display_manager.o
 .text._ZNK2bn11rect_window5rightEv
                0x00000000       0x10 bn_display_manager.o
 .text._ZNK2bn11rect_window12bottom_rightEv
                0x00000000       0x14 bn_display_manager.o
 .text._ZN2bn11rect_window14set_boundariesERKNS_12fixed_rect_tILi12EEE
                0x00000000       0xa4 bn_display_manager.o
 .text._ZN2bn11rect_window14set_boundariesERKNS_21top_left_fixed_rect_tILi12EEE
                0x00000000       0x7c bn_display_manager.o
 .text._ZN2bn11rect_window18restore_boundariesEv
                0x00000000       0x58 bn_display_manager.o
 .text._ZNK2bn11rect_window6cameraEv
                0x00000000       0x14 bn_display_manager.o
 .text._ZN2bn11rect_window10set_cameraEONS_10camera_ptrE
                0x00000000       0x5c bn_display_manager.o
 .text._ZN2bn11rect_window13remove_cameraEv
                0x00000000       0x40 bn_display_manager.o
 .text._ZNK2bn13inside_window7visibleEv
                0x00000000       0x10 bn_display_manager.o
 .text._ZN2bn13inside_window11set_visibleEb
                0x00000000       0x20 bn_display_manager.o
 .text._ZN2bn14sprites_mosaic18horizontal_stretchEv
                0x00000000        0xc bn_display_manager.o
 .text._ZN2bn14sprites_mosaic16vertical_stretchEv
                0x00000000        0xc bn_display_manager.o
 .text._ZN2bn15display_manager11bitmap_pageEv
                0x00000000       0x20 bn_display_manager.o
 .text._ZN2bn15display_manager22flip_bitmap_page_laterEv
                0x00000000       0x1c bn_display_manager.o
 .text._ZN2bn15display_manager20flip_bitmap_page_nowEv
                0x00000000       0x44 bn_display_manager.o
 .text._ZN2bn15display_manager27on_bitmap_painter_destroyedEv
                0x00000000        0xc bn_display_manager.o
 .text._ZN2bn15display_manager15sprites_visibleEv
                0x00000000        0xc bn_display_manager.o
 .text._ZN2bn15display_manager19set_sprites_visibleEb
                0x00000000       0x1c bn_display_manager.o
 .text._ZN2bn15display_manager10bg_enabledEi
                0x00000000        0xc bn_display_manager.o
 .text._ZN2bn15display_manager33sprites_mosaic_horizontal_stretchEv
                0x00000000        0xc bn_display_manager.o
 .text._ZN2bn15display_manager37set_sprites_mosaic_horizontal_stretchENS_7fixed_tILi12EEE
                0x00000000       0x30 bn_display_manager.o
 .text._ZN2bn15display_manager31sprites_mosaic_vertical_stretchEv
                0x00000000        0xc bn_display_manager.o
 .text._ZN2bn15display_manager35set_sprites_mosaic_vertical_stretchENS_7fixed_tILi12EEE
                0x00000000       0x30 bn_display_manager.o
 .text._ZN2bn15display_manager26set_sprites_mosaic_stretchENS_7fixed_tILi12EEE
                0x00000000       0x48 bn_display_manager.o
 .text._ZN2bn15display_manager26set_sprites_mosaic_stretchENS_7fixed_tILi12EEES2_
                0x00000000       0x54 bn_display_manager.o
 .text._ZN2bn15display_manager29bgs_mosaic_horizontal_stretchEv
                0x00000000        0xc bn_display_manager.o
 .text._ZN2bn15display_manager33set_bgs_mosaic_horizontal_stretchENS_7fixed_tILi12EEE
                0x00000000       0x30 bn_display_manager.o
 .text._ZN2bn15display_manager27bgs_mosaic_vertical_stretchEv
                0x00000000        0xc bn_display_manager.o
 .text._ZN2bn15display_manager31set_bgs_mosaic_vertical_stretchENS_7fixed_tILi12EEE
                0x00000000       0x30 bn_display_manager.o
 .text._ZN2bn15display_manager22set_bgs_mosaic_stretchENS_7fixed_tILi12EEE
                0x00000000       0x48 bn_display_manager.o
 .text._ZN2bn15display_manager22set_bgs_mosaic_stretchENS_7fixed_tILi12EEES2_
                0x00000000       0x54 bn_display_manager.o
 .text._ZN2bn15display_manager13reload_mosaicEv
                0x00000000       0x14 bn_display_manager.o
 .text._ZN2bn15display_manager23blending_top_bg_enabledEi
                0x00000000        0xc bn_display_manager.o
 .text._ZN2bn15display_manager26blending_bottom_bg_enabledEi
                0x00000000        0xc bn_display_manager.o
 .text._ZN2bn15display_manager31blending_bottom_sprites_enabledEv
                0x00000000        0xc bn_display_manager.o
 .text._ZN2bn15display_manager35set_blending_bottom_sprites_enabledEb
                0x00000000       0x1c bn_display_manager.o
 .text._ZN2bn15display_manager32blending_bottom_backdrop_enabledEv
                0x00000000        0xc bn_display_manager.o
 .text._ZN2bn15display_manager36set_blending_bottom_backdrop_enabledEb
                0x00000000       0x1c bn_display_manager.o
 .text._ZN2bn15display_manager27blending_transparency_alphaEv
                0x00000000       0x18 bn_display_manager.o
 .text._ZN2bn15display_manager31set_blending_transparency_alphaENS_7fixed_tILi12EEE
                0x00000000       0x34 bn_display_manager.o
 .text._ZN2bn15display_manager24blending_intensity_alphaEv
                0x00000000       0x18 bn_display_manager.o
 .text._ZN2bn15display_manager28set_blending_intensity_alphaENS_7fixed_tILi12EEE
                0x00000000       0x34 bn_display_manager.o
 .text._ZN2bn15display_manager45set_blending_transparency_and_intensity_alphaENS_7fixed_tILi12EEES2_
                0x00000000       0x44 bn_display_manager.o
 .text._ZN2bn15display_manager36set_blending_transparency_top_weightENS_7fixed_tILi12EEE
                0x00000000       0x20 bn_display_manager.o
 .text._ZN2bn15display_manager39set_blending_transparency_bottom_weightENS_7fixed_tILi12EEE
                0x00000000       0x20 bn_display_manager.o
 .text._ZN2bn15display_manager33set_blending_transparency_weightsENS_7fixed_tILi12EEES2_
                0x00000000       0x34 bn_display_manager.o
 .text._ZN2bn15display_manager28reload_blending_transparencyEv
                0x00000000       0x14 bn_display_manager.o
 .text._ZN2bn15display_manager25set_blending_fade_enabledEb
                0x00000000       0x2c bn_display_manager.o
 .text._ZN2bn15display_manager22blending_fade_to_blackEv
                0x00000000        0xc bn_display_manager.o
 .text._ZN2bn15display_manager26set_blending_fade_to_blackEb
                0x00000000       0x24 bn_display_manager.o
 .text._ZN2bn15display_manager19blending_fade_alphaEv
                0x00000000        0xc bn_display_manager.o
 .text._ZN2bn15display_manager23set_blending_fade_alphaENS_7fixed_tILi12EEE
                0x00000000       0x58 bn_display_manager.o
 .text._ZN2bn15display_manager20reload_blending_fadeEv
                0x00000000       0x40 bn_display_manager.o
 .text._ZN2bn15display_manager22show_sprites_in_windowEi
                0x00000000       0x14 bn_display_manager.o
 .text._ZN2bn15display_manager26set_show_sprites_in_windowEib
                0x00000000       0x30 bn_display_manager.o
 .text._ZN2bn15display_manager23show_blending_in_windowEi
                0x00000000       0x14 bn_display_manager.o
 .text._ZN2bn15display_manager27set_show_blending_in_windowEib
                0x00000000       0x30 bn_display_manager.o
 .text._ZN2bn15display_manager18show_all_in_windowEi
                0x00000000       0x18 bn_display_manager.o
 .text._ZN2bn15display_manager22set_show_all_in_windowEi
                0x00000000       0x20 bn_display_manager.o
 .text._ZN2bn15display_manager22show_nothing_in_windowEi
                0x00000000       0x18 bn_display_manager.o
 .text._ZN2bn15display_manager26set_show_nothing_in_windowEi
                0x00000000       0x20 bn_display_manager.o
 .text._ZN2bn15display_manager20rect_window_top_leftEi
                0x00000000        0xc bn_display_manager.o
 .text._ZN2bn15display_manager24rect_window_bottom_rightEi
                0x00000000        0xc bn_display_manager.o
 .text._ZN2bn15display_manager24set_rect_window_top_leftEiRKNS_13fixed_point_tILi12EEE
                0x00000000       0x3c bn_display_manager.o
 .text._ZN2bn15display_manager28set_rect_window_bottom_rightEiRKNS_13fixed_point_tILi12EEE
                0x00000000       0x58 bn_display_manager.o
 .text._ZN2bn15display_manager18rect_window_cameraEi
                0x00000000       0x10 bn_display_manager.o
 .text._ZN2bn15display_manager22set_rect_window_cameraEiONS_10camera_ptrE
                0x00000000       0x54 bn_display_manager.o
 .text._ZN2bn11rect_window10set_cameraERKNS_10camera_ptrE
                0x00000000       0x24 bn_display_manager.o
 .text._ZN2bn11rect_window10set_cameraERKNS_8optionalINS_10camera_ptrEEE
                0x00000000       0x60 bn_display_manager.o
 .text._ZN2bn11rect_window10set_cameraEONS_8optionalINS_10camera_ptrEEE
                0x00000000       0x4c bn_display_manager.o
 .text._ZN2bn15display_manager25remove_rect_window_cameraEi
                0x00000000       0x3c bn_display_manager.o
 .text._ZN2bn15display_manager30reload_rect_windows_boundariesEv
                0x00000000       0x14 bn_display_manager.o
 .text._ZN2bn15display_manager21inside_window_enabledEi
                0x00000000        0xc bn_display_manager.o
 .text._ZN2bn15display_manager25set_inside_window_enabledEib
                0x00000000       0x1c bn_display_manager.o
 .text._ZN2bn15display_manager18green_swap_enabledEv
                0x00000000        0xc bn_display_manager.o
 .text._ZN2bn15display_manager22set_green_swap_enabledEb
                0x00000000       0x1c bn_display_manager.o
 .text._ZN2bn15display_manager17reload_green_swapEv
                0x00000000       0x14 bn_display_manager.o
 .text._ZN2bn15display_manager5sleepEv
                0x00000000       0x10 bn_display_manager.o
 .text._ZN2bn15display_manager7wake_upEv
                0x00000000       0x10 bn_display_manager.o
 .text._ZN2bn15display_manager13set_show_modeEv
                0x00000000       0x28 bn_display_manager.o
 .rodata._ZN2bn8blending27set_transparency_attributesERKNS_32blending_transparency_attributesE.str1.4
                0x00000000       0x76 bn_display_manager.o
 .text._ZN2bn8blending27set_transparency_attributesERKNS_32blending_transparency_attributesE
                0x00000000       0x84 bn_display_manager.o
 .rodata._ZN2bn8blending14set_fade_alphaENS_19blending_fade_alphaE.str1.4
                0x00000000        0xf bn_display_manager.o
 .text._ZN2bn8blending14set_fade_alphaENS_19blending_fade_alphaE
                0x00000000       0xb4 bn_display_manager.o
 .text._ZN3_bn6assert9show_argsIA63_cEEvPKcS4_S4_iRKT_
                0x00000000       0x48 bn_display_manager.o
 .text._ZN3_bn6assert9show_argsIA34_cEEvPKcS4_S4_iRKT_
                0x00000000       0x48 bn_display_manager.o
 .rodata._ZN2bn15display_manager25on_bitmap_painter_createdEPPv.str1.4
                0x00000000       0x56 bn_display_manager.o
 .text._ZN2bn15display_manager25on_bitmap_painter_createdEPPv
                0x00000000       0x38 bn_display_manager.o
 .text._ZN2bn13ostringstream6appendILi12EEEvNS_7fixed_tIXT_EEE
                0x00000000       0xa0 bn_display_manager.o
 .text._ZN3_bn6assert9show_argsIA29_cN2bn7fixed_tILi12EEEEEvPKcS7_S7_iRKT_RKT0_
                0x00000000       0x54 bn_display_manager.o
 .rodata._ZN2bn8blending22set_transparency_alphaENS_7fixed_tILi12EEE.str1.4
                0x00000000       0x69 bn_display_manager.o
 .text._ZN2bn8blending22set_transparency_alphaENS_7fixed_tILi12EEE
                0x00000000       0x90 bn_display_manager.o
 .rodata._ZN2bn10bgs_mosaic22set_horizontal_stretchENS_7fixed_tILi12EEE.str1.4
                0x00000000       0x7d bn_display_manager.o
 .text._ZN2bn10bgs_mosaic22set_horizontal_stretchENS_7fixed_tILi12EEE
                0x00000000       0x64 bn_display_manager.o
 .rodata._ZN2bn14sprites_mosaic22set_horizontal_stretchENS_7fixed_tILi12EEE.str1.4
                0x00000000       0x18 bn_display_manager.o
 .text._ZN2bn14sprites_mosaic22set_horizontal_stretchENS_7fixed_tILi12EEE
                0x00000000       0x64 bn_display_manager.o
 .text._ZN3_bn6assert9show_argsIA26_cN2bn7fixed_tILi12EEEEEvPKcS7_S7_iRKT_RKT0_
                0x00000000       0x54 bn_display_manager.o
 .rodata._ZN2bn8blending19set_intensity_alphaENS_7fixed_tILi12EEE.str1.4
                0x00000000       0x9f bn_display_manager.o
 .text._ZN2bn8blending19set_intensity_alphaENS_7fixed_tILi12EEE
                0x00000000       0x90 bn_display_manager.o
 .rodata._ZN2bn8blending36set_transparency_and_intensity_alphaENS_7fixed_tILi12EEES2_.str1.4
                0x00000000       0x25 bn_display_manager.o
 .text._ZN2bn8blending36set_transparency_and_intensity_alphaENS_7fixed_tILi12EEES2_
                0x00000000       0x98 bn_display_manager.o
 .text._ZN3_bn6assert9show_argsIA34_cN2bn7fixed_tILi12EEEEEvPKcS7_S7_iRKT_RKT0_
                0x00000000       0x54 bn_display_manager.o
 .rodata._ZN2bn8blending27set_transparency_top_weightENS_7fixed_tILi12EEE.str1.4
                0x00000000       0x7e bn_display_manager.o
 .text._ZN2bn8blending27set_transparency_top_weightENS_7fixed_tILi12EEE
                0x00000000       0x7c bn_display_manager.o
 .text._ZN3_bn6assert9show_argsIA37_cN2bn7fixed_tILi12EEEEEvPKcS7_S7_iRKT_RKT0_
                0x00000000       0x54 bn_display_manager.o
 .rodata._ZN2bn8blending30set_transparency_bottom_weightENS_7fixed_tILi12EEE.str1.4
                0x00000000       0x89 bn_display_manager.o
 .text._ZN2bn8blending30set_transparency_bottom_weightENS_7fixed_tILi12EEE
                0x00000000       0x78 bn_display_manager.o
 .rodata._ZN2bn8blending24set_transparency_weightsENS_7fixed_tILi12EEES2_.str1.4
                0x00000000       0x19 bn_display_manager.o
 .text._ZN2bn8blending24set_transparency_weightsENS_7fixed_tILi12EEES2_
                0x00000000       0xb8 bn_display_manager.o
 .rodata._ZN2bn8blending23transparency_attributesEv.str1.4
                0x00000000       0x4a bn_display_manager.o
 .text._ZN2bn8blending23transparency_attributesEv
                0x00000000       0x9c bn_display_manager.o
 .text._ZN3_bn6assert9show_argsIA21_cN2bn7fixed_tILi12EEEEEvPKcS7_S7_iRKT_RKT0_
                0x00000000       0x54 bn_display_manager.o
 .rodata._ZN2bn8blending14set_fade_alphaENS_7fixed_tILi12EEE.str1.4
                0x00000000       0x39 bn_display_manager.o
 .text._ZN2bn8blending14set_fade_alphaENS_7fixed_tILi12EEE
                0x00000000       0x90 bn_display_manager.o
 .text._ZN3_bn6assert9show_argsIA27_cN2bn7fixed_tILi12EEEEEvPKcS7_S7_iRKT_RKT0_
                0x00000000       0x54 bn_display_manager.o
 .rodata._ZN2bn10bgs_mosaic20set_vertical_stretchENS_7fixed_tILi12EEE.str1.4
                0x00000000       0x63 bn_display_manager.o
 .text._ZN2bn10bgs_mosaic20set_vertical_stretchENS_7fixed_tILi12EEE
                0x00000000       0x64 bn_display_manager.o
 .rodata._ZN2bn10bgs_mosaic11set_stretchENS_7fixed_tILi12EEES2_.str1.4
                0x00000000        0xc bn_display_manager.o
 .text._ZN2bn10bgs_mosaic11set_stretchENS_7fixed_tILi12EEES2_
                0x00000000       0xa0 bn_display_manager.o
 .text._ZN2bn14sprites_mosaic20set_vertical_stretchENS_7fixed_tILi12EEE
                0x00000000       0x64 bn_display_manager.o
 .text._ZN2bn14sprites_mosaic11set_stretchENS_7fixed_tILi12EEES2_
                0x00000000       0xa0 bn_display_manager.o
 .text._ZN3_bn6assert9show_argsIA18_cN2bn7fixed_tILi12EEEEEvPKcS7_S7_iRKT_RKT0_
                0x00000000       0x54 bn_display_manager.o
 .rodata._ZN2bn10bgs_mosaic11set_stretchENS_7fixed_tILi12EEE.str1.4
                0x00000000       0x32 bn_display_manager.o
 .text._ZN2bn10bgs_mosaic11set_stretchENS_7fixed_tILi12EEE
                0x00000000       0x74 bn_display_manager.o
 .text._ZN2bn14sprites_mosaic11set_stretchENS_7fixed_tILi12EEE
                0x00000000       0x74 bn_display_manager.o
 .text._ZN3_bn6assert9show_argsIA16_cN2bn7fixed_tILi12EEEEEvPKcS7_S7_iRKT_RKT0_
                0x00000000       0x54 bn_display_manager.o
 .text._ZN2bn13ostringstream11append_argsINS_7fixed_tILi12EEEJA4_cS3_EEEvRKT_DpRKT0_.isra.0
                0x00000000       0xb4 bn_display_manager.o
 .text._ZN3_bn6assert9show_argsIJA24_cN2bn7fixed_tILi12EEEA4_cS5_EEEvPKcS8_S8_iDpRKT_
                0x00000000       0x58 bn_display_manager.o
 .rodata._ZN2bn11rect_window14set_boundariesERKNS_13fixed_point_tILi12EEES4_.str1.4
                0x00000000       0xa4 bn_display_manager.o
 .text._ZN2bn11rect_window14set_boundariesERKNS_13fixed_point_tILi12EEES4_
                0x00000000       0x8c bn_display_manager.o
 .text._ZN2bn11rect_window14set_boundariesENS_7fixed_tILi12EEES2_S2_S2_
                0x00000000       0xdc bn_display_manager.o
 .text._ZN3_bn6assert9show_argsIJA16_cN2bn7fixed_tILi12EEEA4_cS5_EEEvPKcS8_S8_iDpRKT_
                0x00000000       0x58 bn_display_manager.o
 .rodata._ZN2bn11rect_window9set_rightENS_7fixed_tILi12EEE.str1.4
                0x00000000       0x34 bn_display_manager.o
 .text._ZN2bn11rect_window9set_rightENS_7fixed_tILi12EEE
                0x00000000       0x84 bn_display_manager.o
 .text._ZN3_bn6assert9show_argsIJA17_cN2bn7fixed_tILi12EEEA4_cS5_EEEvPKcS8_S8_iDpRKT_
                0x00000000       0x58 bn_display_manager.o
 .rodata._ZN2bn11rect_window10set_bottomENS_7fixed_tILi12EEE.str1.4
                0x00000000       0x39 bn_display_manager.o
 .text._ZN2bn11rect_window10set_bottomENS_7fixed_tILi12EEE
                0x00000000       0x74 bn_display_manager.o
 .rodata._ZN2bn11rect_window16set_bottom_rightERKNS_13fixed_point_tILi12EEE.str1.4
                0x00000000       0x5b bn_display_manager.o
 .text._ZN2bn11rect_window16set_bottom_rightERKNS_13fixed_point_tILi12EEE
                0x00000000       0x90 bn_display_manager.o
 .text._ZN2bn11rect_window16set_bottom_rightENS_7fixed_tILi12EEES2_
                0x00000000       0x14 bn_display_manager.o
 .text._ZN3_bn6assert9show_argsIJA15_cN2bn7fixed_tILi12EEEA4_cS5_EEEvPKcS8_S8_iDpRKT_
                0x00000000       0x58 bn_display_manager.o
 .rodata._ZN2bn11rect_window8set_leftENS_7fixed_tILi12EEE.str1.4
                0x00000000       0x37 bn_display_manager.o
 .text._ZN2bn11rect_window8set_leftENS_7fixed_tILi12EEE
                0x00000000       0x7c bn_display_manager.o
 .text._ZN3_bn6assert9show_argsIJA14_cN2bn7fixed_tILi12EEEA4_cS5_EEEvPKcS8_S8_iDpRKT_
                0x00000000       0x58 bn_display_manager.o
 .rodata._ZN2bn11rect_window7set_topENS_7fixed_tILi12EEE.str1.4
                0x00000000       0x32 bn_display_manager.o
 .text._ZN2bn11rect_window7set_topENS_7fixed_tILi12EEE
                0x00000000       0x74 bn_display_manager.o
 .rodata._ZN2bn11rect_window12set_top_leftERKNS_13fixed_point_tILi12EEE.str1.4
                0x00000000       0x57 bn_display_manager.o
 .text._ZN2bn11rect_window12set_top_leftERKNS_13fixed_point_tILi12EEE
                0x00000000       0x90 bn_display_manager.o
 .text._ZN2bn11rect_window12set_top_leftENS_7fixed_tILi12EEES2_
                0x00000000       0x14 bn_display_manager.o
 .text._ZN3_bn6assert9show_argsIA17_cN2bn7fixed_tILi12EEEEEvPKcS7_S7_iRKT_RKT0_
                0x00000000       0x54 bn_display_manager.o
 .rodata._ZNK2bn11rect_window10boundariesEv.str1.4
                0x00000000       0x59 bn_display_manager.o
 .text._ZNK2bn11rect_window10boundariesEv
                0x00000000       0x90 bn_display_manager.o
 .text._ZNK2bn11rect_window19top_left_boundariesEv
                0x00000000       0x98 bn_display_manager.o
 .group         0x00000000        0xc bn_gpio_manager.o
 .group         0x00000000        0xc bn_gpio_manager.o
 .group         0x00000000        0xc bn_gpio_manager.o
 .group         0x00000000        0xc bn_gpio_manager.o
 .text          0x00000000        0x0 bn_gpio_manager.o
 .data          0x00000000        0x0 bn_gpio_manager.o
 .bss           0x00000000        0x0 bn_gpio_manager.o
 .text._ZN2bn4date6activeEv
                0x00000000       0x5c bn_gpio_manager.o
 .text._ZN2bn4time6activeEv
                0x00000000       0x5c bn_gpio_manager.o
 .text._ZN2bn6rumble7enabledEv
                0x00000000        0xc bn_gpio_manager.o
 .text._ZN2bn6rumble11set_enabledEb
                0x00000000       0x40 bn_gpio_manager.o
 .text._ZN2bn12gpio_manager10rtc_activeEv
                0x00000000       0x5c bn_gpio_manager.o
 .text._ZN2bn12gpio_manager14rumble_enabledEv
                0x00000000        0xc bn_gpio_manager.o
 .text._ZN2bn12gpio_manager18set_rumble_enabledEb
                0x00000000       0x40 bn_gpio_manager.o
 .text._ZN2bn12gpio_manager7wake_upEv
                0x00000000       0x30 bn_gpio_manager.o
 .text._ZN3_bn6assert9show_argsIJA15_ciciciA3_cicEEEvPKcS5_S5_iDpRKT_
                0x00000000       0x98 bn_gpio_manager.o
 .rodata._ZN2bn12gpio_manager12current_dateEv.str1.4
                0x00000000       0x2b bn_gpio_manager.o
 .text._ZN2bn12gpio_manager12current_dateEv
                0x00000000      0x24c bn_gpio_manager.o
 .text._ZN2bn4date7currentEv
                0x00000000       0x10 bn_gpio_manager.o
 .text._ZN3_bn6assert9show_argsIA15_ciEEvPKcS4_S4_iRKT_RKT0_
                0x00000000       0x54 bn_gpio_manager.o
 .text._ZN3_bn6assert9show_argsIA17_ciEEvPKcS4_S4_iRKT_RKT0_
                0x00000000       0x54 bn_gpio_manager.o
 .text._ZN2bn2hw4gpio8rtc_timeEv
                0x00000000       0x94 bn_gpio_manager.o
 .text._ZN2bn12gpio_manager12current_timeEv
                0x00000000       0x74 bn_gpio_manager.o
 .text._ZN2bn4time7currentEv
                0x00000000       0x74 bn_gpio_manager.o
 .group         0x00000000        0xc bn_hblank_effects_manager.o
 .group         0x00000000        0xc bn_hblank_effects_manager.o
 .group         0x00000000        0xc bn_hblank_effects_manager.o
 .group         0x00000000        0xc bn_hblank_effects_manager.o
 .group         0x00000000        0xc bn_hblank_effects_manager.o
 .group         0x00000000        0xc bn_hblank_effects_manager.o
 .group         0x00000000        0xc bn_hblank_effects_manager.o
 .group         0x00000000        0xc bn_hblank_effects_manager.o
 .group         0x00000000        0xc bn_hblank_effects_manager.o
 .group         0x00000000        0xc bn_hblank_effects_manager.o
 .group         0x00000000        0xc bn_hblank_effects_manager.o
 .group         0x00000000        0xc bn_hblank_effects_manager.o
 .group         0x00000000        0xc bn_hblank_effects_manager.o
 .text          0x00000000        0x0 bn_hblank_effects_manager.o
 .data          0x00000000        0x0 bn_hblank_effects_manager.o
 .bss           0x00000000        0x0 bn_hblank_effects_manager.o
 .text._ZN2bn4hbes10used_countEv
                0x00000000       0x1c bn_hblank_effects_manager.o
 .text._ZN2bn4hbes15available_countEv
                0x00000000       0x10 bn_hblank_effects_manager.o
 .text._ZNK2bn7hbe_ptr7visibleEv
                0x00000000       0x1c bn_hblank_effects_manager.o
 .text._ZN2bn7hbe_ptrC2ERKS0_
                0x00000000       0x20 bn_hblank_effects_manager.o
 .text._ZN2bn24bg_palette_color_hbe_ptr17reload_colors_refEv
                0x00000000       0x2c bn_hblank_effects_manager.o
 .text._ZN2bn24bg_palette_color_hbe_ptr4swapERS0_
                0x00000000       0x2c bn_hblank_effects_manager.o
 .text._ZN2bn24bg_palette_color_hbe_ptrC2EiiONS_14bg_palette_ptrE
                0x00000000       0x10 bn_hblank_effects_manager.o
 .text._ZN2bn37bg_palettes_transparent_color_hbe_ptr17reload_colors_refEv
                0x00000000       0x2c bn_hblank_effects_manager.o
 .text._ZN2bn37bg_palettes_transparent_color_hbe_ptr4swapERS0_
                0x00000000       0x10 bn_hblank_effects_manager.o
 .text._ZN2bn37bg_palettes_transparent_color_hbe_ptrC2Ei
                0x00000000        0x4 bn_hblank_effects_manager.o
 .text._ZN2bn22backdrop_color_hbe_ptr17reload_colors_refEv
                0x00000000       0x2c bn_hblank_effects_manager.o
 .text._ZN2bn22backdrop_color_hbe_ptr4swapERS0_
                0x00000000       0x10 bn_hblank_effects_manager.o
 .text._ZN2bn27blending_fade_alpha_hbe_ptr17reload_alphas_refEv
                0x00000000       0x2c bn_hblank_effects_manager.o
 .text._ZN2bn40blending_transparency_attributes_hbe_ptr21reload_attributes_refEv
                0x00000000       0x2c bn_hblank_effects_manager.o
 .text._ZN2bn18green_swap_hbe_ptr17reload_states_refEv
                0x00000000       0x2c bn_hblank_effects_manager.o
 .text._ZN2bn18green_swap_hbe_ptr4swapERS0_
                0x00000000       0x10 bn_hblank_effects_manager.o
 .text._ZN2bn25mosaic_attributes_hbe_ptr21reload_attributes_refEv
                0x00000000       0x2c bn_hblank_effects_manager.o
 .text._ZN2bn30rect_window_boundaries_hbe_ptr17reload_deltas_refEv
                0x00000000       0x2c bn_hblank_effects_manager.o
 .text._ZN2bn30rect_window_boundaries_hbe_ptr4swapERS0_
                0x00000000       0x18 bn_hblank_effects_manager.o
 .text._ZN2bn30rect_window_boundaries_hbe_ptrC2EiNS_11rect_windowE
                0x00000000        0x8 bn_hblank_effects_manager.o
 .text._ZN2bn29regular_bg_attributes_hbe_ptr21reload_attributes_refEv
                0x00000000       0x2c bn_hblank_effects_manager.o
 .text._ZN2bn29regular_bg_attributes_hbe_ptr4swapERS0_
                0x00000000       0x18 bn_hblank_effects_manager.o
 .text._ZN2bn29regular_bg_attributes_hbe_ptrC2EiONS_14regular_bg_ptrE
                0x00000000        0xc bn_hblank_effects_manager.o
 .text._ZN2bn28affine_bg_attributes_hbe_ptr21reload_attributes_refEv
                0x00000000       0x2c bn_hblank_effects_manager.o
 .text._ZN2bn28affine_bg_attributes_hbe_ptr4swapERS0_
                0x00000000       0x18 bn_hblank_effects_manager.o
 .text._ZN2bn28affine_bg_attributes_hbe_ptrC2EiONS_13affine_bg_ptrE
                0x00000000        0xc bn_hblank_effects_manager.o
 .text._ZN2bn27regular_bg_position_hbe_ptr17reload_deltas_refEv
                0x00000000       0x2c bn_hblank_effects_manager.o
 .text._ZN2bn27regular_bg_position_hbe_ptr4swapERS0_
                0x00000000       0x18 bn_hblank_effects_manager.o
 .text._ZN2bn27regular_bg_position_hbe_ptrC2EiONS_14regular_bg_ptrE
                0x00000000        0xc bn_hblank_effects_manager.o
 .text._ZN2bn32affine_bg_pivot_position_hbe_ptr17reload_deltas_refEv
                0x00000000       0x2c bn_hblank_effects_manager.o
 .text._ZN2bn32affine_bg_pivot_position_hbe_ptr4swapERS0_
                0x00000000       0x18 bn_hblank_effects_manager.o
 .text._ZN2bn32affine_bg_pivot_position_hbe_ptrC2EiONS_13affine_bg_ptrE
                0x00000000        0xc bn_hblank_effects_manager.o
 .text._ZN2bn29affine_bg_pa_register_hbe_ptr21reload_attributes_refEv
                0x00000000       0x2c bn_hblank_effects_manager.o
 .text._ZN2bn29affine_bg_pa_register_hbe_ptr17reload_values_refEv
                0x00000000       0x2c bn_hblank_effects_manager.o
 .text._ZN2bn29affine_bg_pa_register_hbe_ptr4swapERS0_
                0x00000000       0x20 bn_hblank_effects_manager.o
 .text._ZN2bn29affine_bg_pa_register_hbe_ptrC2EibONS_13affine_bg_ptrE
                0x00000000       0x10 bn_hblank_effects_manager.o
 .text._ZN2bn29affine_bg_pb_register_hbe_ptr21reload_attributes_refEv
                0x00000000       0x2c bn_hblank_effects_manager.o
 .text._ZN2bn29affine_bg_pb_register_hbe_ptr17reload_values_refEv
                0x00000000       0x2c bn_hblank_effects_manager.o
 .text._ZN2bn29affine_bg_pb_register_hbe_ptr4swapERS0_
                0x00000000       0x20 bn_hblank_effects_manager.o
 .text._ZN2bn29affine_bg_pb_register_hbe_ptrC2EibONS_13affine_bg_ptrE
                0x00000000       0x10 bn_hblank_effects_manager.o
 .text._ZN2bn29affine_bg_pc_register_hbe_ptr21reload_attributes_refEv
                0x00000000       0x2c bn_hblank_effects_manager.o
 .text._ZN2bn29affine_bg_pc_register_hbe_ptr17reload_values_refEv
                0x00000000       0x2c bn_hblank_effects_manager.o
 .text._ZN2bn29affine_bg_pc_register_hbe_ptr4swapERS0_
                0x00000000       0x20 bn_hblank_effects_manager.o
 .text._ZN2bn29affine_bg_pc_register_hbe_ptrC2EibONS_13affine_bg_ptrE
                0x00000000       0x10 bn_hblank_effects_manager.o
 .text._ZN2bn29affine_bg_pd_register_hbe_ptr21reload_attributes_refEv
                0x00000000       0x2c bn_hblank_effects_manager.o
 .text._ZN2bn29affine_bg_pd_register_hbe_ptr17reload_values_refEv
                0x00000000       0x2c bn_hblank_effects_manager.o
 .text._ZN2bn29affine_bg_pd_register_hbe_ptr4swapERS0_
                0x00000000       0x20 bn_hblank_effects_manager.o
 .text._ZN2bn29affine_bg_pd_register_hbe_ptrC2EibONS_13affine_bg_ptrE
                0x00000000       0x10 bn_hblank_effects_manager.o
 .text._ZN2bn29affine_bg_dx_register_hbe_ptr21reload_attributes_refEv
                0x00000000       0x2c bn_hblank_effects_manager.o
 .text._ZN2bn29affine_bg_dx_register_hbe_ptr17reload_values_refEv
                0x00000000       0x2c bn_hblank_effects_manager.o
 .text._ZN2bn29affine_bg_dx_register_hbe_ptr4swapERS0_
                0x00000000       0x20 bn_hblank_effects_manager.o
 .text._ZN2bn29affine_bg_dx_register_hbe_ptrC2EibONS_13affine_bg_ptrE
                0x00000000       0x10 bn_hblank_effects_manager.o
 .text._ZN2bn29affine_bg_dy_register_hbe_ptr21reload_attributes_refEv
                0x00000000       0x2c bn_hblank_effects_manager.o
 .text._ZN2bn29affine_bg_dy_register_hbe_ptr17reload_values_refEv
                0x00000000       0x2c bn_hblank_effects_manager.o
 .text._ZN2bn29affine_bg_dy_register_hbe_ptr4swapERS0_
                0x00000000       0x20 bn_hblank_effects_manager.o
 .text._ZN2bn29affine_bg_dy_register_hbe_ptrC2EibONS_13affine_bg_ptrE
                0x00000000       0x10 bn_hblank_effects_manager.o
 .text._ZN2bn32affine_bg_mat_attributes_hbe_ptr21reload_attributes_refEv
                0x00000000       0xf0 bn_hblank_effects_manager.o
 .text._ZN2bn32affine_bg_mat_attributes_hbe_ptr4swapERS0_
                0x00000000       0xb0 bn_hblank_effects_manager.o
 .text._ZN2bn32affine_bg_mat_attributes_hbe_ptrC2EONS_29affine_bg_pa_register_hbe_ptrEONS_29affine_bg_pb_register_hbe_ptrEONS_29affine_bg_pc_register_hbe_ptrEONS_29affine_bg_pd_register_hbe_ptrEONS_29affine_bg_dx_register_hbe_ptrEONS_29affine_bg_dy_register_hbe_ptrE
                0x00000000       0x9c bn_hblank_effects_manager.o
 .text._ZN2bn36palette_bitmap_bg_attributes_hbe_ptr21reload_attributes_refEv
                0x00000000       0x2c bn_hblank_effects_manager.o
 .text._ZN2bn36palette_bitmap_bg_attributes_hbe_ptr4swapERS0_
                0x00000000       0x18 bn_hblank_effects_manager.o
 .text._ZN2bn36palette_bitmap_bg_attributes_hbe_ptrC2EiONS_21palette_bitmap_bg_ptrE
                0x00000000        0xc bn_hblank_effects_manager.o
 .text._ZN2bn40palette_bitmap_bg_pivot_position_hbe_ptr17reload_deltas_refEv
                0x00000000       0x2c bn_hblank_effects_manager.o
 .text._ZN2bn40palette_bitmap_bg_pivot_position_hbe_ptr4swapERS0_
                0x00000000       0x18 bn_hblank_effects_manager.o
 .text._ZN2bn40palette_bitmap_bg_pivot_position_hbe_ptrC2EiONS_21palette_bitmap_bg_ptrE
                0x00000000        0xc bn_hblank_effects_manager.o
 .text._ZN2bn37palette_bitmap_bg_pa_register_hbe_ptr21reload_attributes_refEv
                0x00000000       0x2c bn_hblank_effects_manager.o
 .text._ZN2bn37palette_bitmap_bg_pa_register_hbe_ptr17reload_values_refEv
                0x00000000       0x2c bn_hblank_effects_manager.o
 .text._ZN2bn37palette_bitmap_bg_pa_register_hbe_ptr4swapERS0_
                0x00000000       0x20 bn_hblank_effects_manager.o
 .text._ZN2bn37palette_bitmap_bg_pa_register_hbe_ptrC2EibONS_21palette_bitmap_bg_ptrE
                0x00000000       0x10 bn_hblank_effects_manager.o
 .text._ZN2bn37palette_bitmap_bg_pb_register_hbe_ptr21reload_attributes_refEv
                0x00000000       0x2c bn_hblank_effects_manager.o
 .text._ZN2bn37palette_bitmap_bg_pb_register_hbe_ptr17reload_values_refEv
                0x00000000       0x2c bn_hblank_effects_manager.o
 .text._ZN2bn37palette_bitmap_bg_pb_register_hbe_ptr4swapERS0_
                0x00000000       0x20 bn_hblank_effects_manager.o
 .text._ZN2bn37palette_bitmap_bg_pb_register_hbe_ptrC2EibONS_21palette_bitmap_bg_ptrE
                0x00000000       0x10 bn_hblank_effects_manager.o
 .text._ZN2bn37palette_bitmap_bg_pc_register_hbe_ptr21reload_attributes_refEv
                0x00000000       0x2c bn_hblank_effects_manager.o
 .text._ZN2bn37palette_bitmap_bg_pc_register_hbe_ptr17reload_values_refEv
                0x00000000       0x2c bn_hblank_effects_manager.o
 .text._ZN2bn37palette_bitmap_bg_pc_register_hbe_ptr4swapERS0_
                0x00000000       0x20 bn_hblank_effects_manager.o
 .text._ZN2bn37palette_bitmap_bg_pc_register_hbe_ptrC2EibONS_21palette_bitmap_bg_ptrE
                0x00000000       0x10 bn_hblank_effects_manager.o
 .text._ZN2bn37palette_bitmap_bg_pd_register_hbe_ptr21reload_attributes_refEv
                0x00000000       0x2c bn_hblank_effects_manager.o
 .text._ZN2bn37palette_bitmap_bg_pd_register_hbe_ptr17reload_values_refEv
                0x00000000       0x2c bn_hblank_effects_manager.o
 .text._ZN2bn37palette_bitmap_bg_pd_register_hbe_ptr4swapERS0_
                0x00000000       0x20 bn_hblank_effects_manager.o
 .text._ZN2bn37palette_bitmap_bg_pd_register_hbe_ptrC2EibONS_21palette_bitmap_bg_ptrE
                0x00000000       0x10 bn_hblank_effects_manager.o
 .text._ZN2bn37palette_bitmap_bg_dx_register_hbe_ptr21reload_attributes_refEv
                0x00000000       0x2c bn_hblank_effects_manager.o
 .text._ZN2bn37palette_bitmap_bg_dx_register_hbe_ptr17reload_values_refEv
                0x00000000       0x2c bn_hblank_effects_manager.o
 .text._ZN2bn37palette_bitmap_bg_dx_register_hbe_ptr4swapERS0_
                0x00000000       0x20 bn_hblank_effects_manager.o
 .text._ZN2bn37palette_bitmap_bg_dx_register_hbe_ptrC2EibONS_21palette_bitmap_bg_ptrE
                0x00000000       0x10 bn_hblank_effects_manager.o
 .text._ZN2bn37palette_bitmap_bg_dy_register_hbe_ptr21reload_attributes_refEv
                0x00000000       0x2c bn_hblank_effects_manager.o
 .text._ZN2bn37palette_bitmap_bg_dy_register_hbe_ptr17reload_values_refEv
                0x00000000       0x2c bn_hblank_effects_manager.o
 .text._ZN2bn37palette_bitmap_bg_dy_register_hbe_ptr4swapERS0_
                0x00000000       0x20 bn_hblank_effects_manager.o
 .text._ZN2bn37palette_bitmap_bg_dy_register_hbe_ptrC2EibONS_21palette_bitmap_bg_ptrE
                0x00000000       0x10 bn_hblank_effects_manager.o
 .text._ZN2bn40palette_bitmap_bg_mat_attributes_hbe_ptr21reload_attributes_refEv
                0x00000000        0xc bn_hblank_effects_manager.o
 .text._ZN2bn40palette_bitmap_bg_mat_attributes_hbe_ptr4swapERS0_
                0x00000000        0xc bn_hblank_effects_manager.o
 .text._ZN2bn40palette_bitmap_bg_mat_attributes_hbe_ptrC2EONS_37palette_bitmap_bg_pa_register_hbe_ptrEONS_37palette_bitmap_bg_pb_register_hbe_ptrEONS_37palette_bitmap_bg_pc_register_hbe_ptrEONS_37palette_bitmap_bg_pd_register_hbe_ptrEONS_37palette_bitmap_bg_dx_register_hbe_ptrEONS_37palette_bitmap_bg_dy_register_hbe_ptrE
                0x00000000       0x9c bn_hblank_effects_manager.o
 .text._ZN2bn38sp_direct_bitmap_bg_attributes_hbe_ptr21reload_attributes_refEv
                0x00000000       0x2c bn_hblank_effects_manager.o
 .text._ZN2bn38sp_direct_bitmap_bg_attributes_hbe_ptr4swapERS0_
                0x00000000       0x18 bn_hblank_effects_manager.o
 .text._ZN2bn38sp_direct_bitmap_bg_attributes_hbe_ptrC2EiONS_23sp_direct_bitmap_bg_ptrE
                0x00000000        0xc bn_hblank_effects_manager.o
 .text._ZN2bn42sp_direct_bitmap_bg_pivot_position_hbe_ptr17reload_deltas_refEv
                0x00000000       0x2c bn_hblank_effects_manager.o
 .text._ZN2bn42sp_direct_bitmap_bg_pivot_position_hbe_ptr4swapERS0_
                0x00000000       0x18 bn_hblank_effects_manager.o
 .text._ZN2bn42sp_direct_bitmap_bg_pivot_position_hbe_ptrC2EiONS_23sp_direct_bitmap_bg_ptrE
                0x00000000        0xc bn_hblank_effects_manager.o
 .text._ZN2bn39sp_direct_bitmap_bg_pa_register_hbe_ptr21reload_attributes_refEv
                0x00000000       0x2c bn_hblank_effects_manager.o
 .text._ZN2bn39sp_direct_bitmap_bg_pa_register_hbe_ptr17reload_values_refEv
                0x00000000       0x2c bn_hblank_effects_manager.o
 .text._ZN2bn39sp_direct_bitmap_bg_pa_register_hbe_ptr4swapERS0_
                0x00000000       0x20 bn_hblank_effects_manager.o
 .text._ZN2bn39sp_direct_bitmap_bg_pa_register_hbe_ptrC2EibONS_23sp_direct_bitmap_bg_ptrE
                0x00000000       0x10 bn_hblank_effects_manager.o
 .text._ZN2bn39sp_direct_bitmap_bg_pb_register_hbe_ptr21reload_attributes_refEv
                0x00000000       0x2c bn_hblank_effects_manager.o
 .text._ZN2bn39sp_direct_bitmap_bg_pb_register_hbe_ptr17reload_values_refEv
                0x00000000       0x2c bn_hblank_effects_manager.o
 .text._ZN2bn39sp_direct_bitmap_bg_pb_register_hbe_ptr4swapERS0_
                0x00000000       0x20 bn_hblank_effects_manager.o
 .text._ZN2bn39sp_direct_bitmap_bg_pb_register_hbe_ptrC2EibONS_23sp_direct_bitmap_bg_ptrE
                0x00000000       0x10 bn_hblank_effects_manager.o
 .text._ZN2bn39sp_direct_bitmap_bg_pc_register_hbe_ptr21reload_attributes_refEv
                0x00000000       0x2c bn_hblank_effects_manager.o
 .text._ZN2bn39sp_direct_bitmap_bg_pc_register_hbe_ptr17reload_values_refEv
                0x00000000       0x2c bn_hblank_effects_manager.o
 .text._ZN2bn39sp_direct_bitmap_bg_pc_register_hbe_ptr4swapERS0_
                0x00000000       0x20 bn_hblank_effects_manager.o
 .text._ZN2bn39sp_direct_bitmap_bg_pc_register_hbe_ptrC2EibONS_23sp_direct_bitmap_bg_ptrE
                0x00000000       0x10 bn_hblank_effects_manager.o
 .text._ZN2bn39sp_direct_bitmap_bg_pd_register_hbe_ptr21reload_attributes_refEv
                0x00000000       0x2c bn_hblank_effects_manager.o
 .text._ZN2bn39sp_direct_bitmap_bg_pd_register_hbe_ptr17reload_values_refEv
                0x00000000       0x2c bn_hblank_effects_manager.o
 .text._ZN2bn39sp_direct_bitmap_bg_pd_register_hbe_ptr4swapERS0_
                0x00000000       0x20 bn_hblank_effects_manager.o
 .text._ZN2bn39sp_direct_bitmap_bg_pd_register_hbe_ptrC2EibONS_23sp_direct_bitmap_bg_ptrE
                0x00000000       0x10 bn_hblank_effects_manager.o
 .text._ZN2bn39sp_direct_bitmap_bg_dx_register_hbe_ptr21reload_attributes_refEv
                0x00000000       0x2c bn_hblank_effects_manager.o
 .text._ZN2bn39sp_direct_bitmap_bg_dx_register_hbe_ptr17reload_values_refEv
                0x00000000       0x2c bn_hblank_effects_manager.o
 .text._ZN2bn39sp_direct_bitmap_bg_dx_register_hbe_ptr4swapERS0_
                0x00000000       0x20 bn_hblank_effects_manager.o
 .text._ZN2bn39sp_direct_bitmap_bg_dx_register_hbe_ptrC2EibONS_23sp_direct_bitmap_bg_ptrE
                0x00000000       0x10 bn_hblank_effects_manager.o
 .text._ZN2bn39sp_direct_bitmap_bg_dy_register_hbe_ptr21reload_attributes_refEv
                0x00000000       0x2c bn_hblank_effects_manager.o
 .text._ZN2bn39sp_direct_bitmap_bg_dy_register_hbe_ptr17reload_values_refEv
                0x00000000       0x2c bn_hblank_effects_manager.o
 .text._ZN2bn39sp_direct_bitmap_bg_dy_register_hbe_ptr4swapERS0_
                0x00000000       0x20 bn_hblank_effects_manager.o
 .text._ZN2bn39sp_direct_bitmap_bg_dy_register_hbe_ptrC2EibONS_23sp_direct_bitmap_bg_ptrE
                0x00000000       0x10 bn_hblank_effects_manager.o
 .text._ZN2bn42sp_direct_bitmap_bg_mat_attributes_hbe_ptr21reload_attributes_refEv
                0x00000000        0xc bn_hblank_effects_manager.o
 .text._ZN2bn42sp_direct_bitmap_bg_mat_attributes_hbe_ptr4swapERS0_
                0x00000000        0xc bn_hblank_effects_manager.o
 .text._ZN2bn42sp_direct_bitmap_bg_mat_attributes_hbe_ptrC2EONS_39sp_direct_bitmap_bg_pa_register_hbe_ptrEONS_39sp_direct_bitmap_bg_pb_register_hbe_ptrEONS_39sp_direct_bitmap_bg_pc_register_hbe_ptrEONS_39sp_direct_bitmap_bg_pd_register_hbe_ptrEONS_39sp_direct_bitmap_bg_dx_register_hbe_ptrEONS_39sp_direct_bitmap_bg_dy_register_hbe_ptrE
                0x00000000       0x9c bn_hblank_effects_manager.o
 .text._ZN2bn38dp_direct_bitmap_bg_attributes_hbe_ptr21reload_attributes_refEv
                0x00000000       0x2c bn_hblank_effects_manager.o
 .text._ZN2bn38dp_direct_bitmap_bg_attributes_hbe_ptr4swapERS0_
                0x00000000       0x18 bn_hblank_effects_manager.o
 .text._ZN2bn38dp_direct_bitmap_bg_attributes_hbe_ptrC2EiONS_23dp_direct_bitmap_bg_ptrE
                0x00000000        0xc bn_hblank_effects_manager.o
 .text._ZN2bn42dp_direct_bitmap_bg_pivot_position_hbe_ptr17reload_deltas_refEv
                0x00000000       0x2c bn_hblank_effects_manager.o
 .text._ZN2bn42dp_direct_bitmap_bg_pivot_position_hbe_ptr4swapERS0_
                0x00000000       0x18 bn_hblank_effects_manager.o
 .text._ZN2bn42dp_direct_bitmap_bg_pivot_position_hbe_ptrC2EiONS_23dp_direct_bitmap_bg_ptrE
                0x00000000        0xc bn_hblank_effects_manager.o
 .text._ZN2bn39dp_direct_bitmap_bg_pa_register_hbe_ptr21reload_attributes_refEv
                0x00000000       0x2c bn_hblank_effects_manager.o
 .text._ZN2bn39dp_direct_bitmap_bg_pa_register_hbe_ptr17reload_values_refEv
                0x00000000       0x2c bn_hblank_effects_manager.o
 .text._ZN2bn39dp_direct_bitmap_bg_pa_register_hbe_ptr4swapERS0_
                0x00000000       0x20 bn_hblank_effects_manager.o
 .text._ZN2bn39dp_direct_bitmap_bg_pa_register_hbe_ptrC2EibONS_23dp_direct_bitmap_bg_ptrE
                0x00000000       0x10 bn_hblank_effects_manager.o
 .text._ZN2bn39dp_direct_bitmap_bg_pb_register_hbe_ptr21reload_attributes_refEv
                0x00000000       0x2c bn_hblank_effects_manager.o
 .text._ZN2bn39dp_direct_bitmap_bg_pb_register_hbe_ptr17reload_values_refEv
                0x00000000       0x2c bn_hblank_effects_manager.o
 .text._ZN2bn39dp_direct_bitmap_bg_pb_register_hbe_ptr4swapERS0_
                0x00000000       0x20 bn_hblank_effects_manager.o
 .text._ZN2bn39dp_direct_bitmap_bg_pb_register_hbe_ptrC2EibONS_23dp_direct_bitmap_bg_ptrE
                0x00000000       0x10 bn_hblank_effects_manager.o
 .text._ZN2bn39dp_direct_bitmap_bg_pc_register_hbe_ptr21reload_attributes_refEv
                0x00000000       0x2c bn_hblank_effects_manager.o
 .text._ZN2bn39dp_direct_bitmap_bg_pc_register_hbe_ptr17reload_values_refEv
                0x00000000       0x2c bn_hblank_effects_manager.o
 .text._ZN2bn39dp_direct_bitmap_bg_pc_register_hbe_ptr4swapERS0_
                0x00000000       0x20 bn_hblank_effects_manager.o
 .text._ZN2bn39dp_direct_bitmap_bg_pc_register_hbe_ptrC2EibONS_23dp_direct_bitmap_bg_ptrE
                0x00000000       0x10 bn_hblank_effects_manager.o
 .text._ZN2bn39dp_direct_bitmap_bg_pd_register_hbe_ptr21reload_attributes_refEv
                0x00000000       0x2c bn_hblank_effects_manager.o
 .text._ZN2bn39dp_direct_bitmap_bg_pd_register_hbe_ptr17reload_values_refEv
                0x00000000       0x2c bn_hblank_effects_manager.o
 .text._ZN2bn39dp_direct_bitmap_bg_pd_register_hbe_ptr4swapERS0_
                0x00000000       0x20 bn_hblank_effects_manager.o
 .text._ZN2bn39dp_direct_bitmap_bg_pd_register_hbe_ptrC2EibONS_23dp_direct_bitmap_bg_ptrE
                0x00000000       0x10 bn_hblank_effects_manager.o
 .text._ZN2bn39dp_direct_bitmap_bg_dx_register_hbe_ptr21reload_attributes_refEv
                0x00000000       0x2c bn_hblank_effects_manager.o
 .text._ZN2bn39dp_direct_bitmap_bg_dx_register_hbe_ptr17reload_values_refEv
                0x00000000       0x2c bn_hblank_effects_manager.o
 .text._ZN2bn39dp_direct_bitmap_bg_dx_register_hbe_ptr4swapERS0_
                0x00000000       0x20 bn_hblank_effects_manager.o
 .text._ZN2bn39dp_direct_bitmap_bg_dx_register_hbe_ptrC2EibONS_23dp_direct_bitmap_bg_ptrE
                0x00000000       0x10 bn_hblank_effects_manager.o
 .text._ZN2bn39dp_direct_bitmap_bg_dy_register_hbe_ptr21reload_attributes_refEv
                0x00000000       0x2c bn_hblank_effects_manager.o
 .text._ZN2bn39dp_direct_bitmap_bg_dy_register_hbe_ptr17reload_values_refEv
                0x00000000       0x2c bn_hblank_effects_manager.o
 .text._ZN2bn39dp_direct_bitmap_bg_dy_register_hbe_ptr4swapERS0_
                0x00000000       0x20 bn_hblank_effects_manager.o
 .text._ZN2bn39dp_direct_bitmap_bg_dy_register_hbe_ptrC2EibONS_23dp_direct_bitmap_bg_ptrE
                0x00000000       0x10 bn_hblank_effects_manager.o
 .text._ZN2bn42dp_direct_bitmap_bg_mat_attributes_hbe_ptr21reload_attributes_refEv
                0x00000000        0xc bn_hblank_effects_manager.o
 .text._ZN2bn42dp_direct_bitmap_bg_mat_attributes_hbe_ptr4swapERS0_
                0x00000000        0xc bn_hblank_effects_manager.o
 .text._ZN2bn42dp_direct_bitmap_bg_mat_attributes_hbe_ptrC2EONS_39dp_direct_bitmap_bg_pa_register_hbe_ptrEONS_39dp_direct_bitmap_bg_pb_register_hbe_ptrEONS_39dp_direct_bitmap_bg_pc_register_hbe_ptrEONS_39dp_direct_bitmap_bg_pd_register_hbe_ptrEONS_39dp_direct_bitmap_bg_dx_register_hbe_ptrEONS_39dp_direct_bitmap_bg_dy_register_hbe_ptrE
                0x00000000       0x9c bn_hblank_effects_manager.o
 .text._ZN2bn36sprite_affine_mat_attributes_hbe_ptr21reload_attributes_refEv
                0x00000000       0xa4 bn_hblank_effects_manager.o
 .text._ZN2bn36sprite_affine_mat_attributes_hbe_ptr4swapERS0_
                0x00000000       0x84 bn_hblank_effects_manager.o
 .text._ZN2bn36sprite_affine_mat_attributes_hbe_ptrC2EONS_37sprite_affine_mat_pa_register_hbe_ptrEONS_37sprite_affine_mat_pb_register_hbe_ptrEONS_37sprite_affine_mat_pc_register_hbe_ptrEONS_37sprite_affine_mat_pd_register_hbe_ptrE
                0x00000000       0x64 bn_hblank_effects_manager.o
 .text._ZN2bn37sprite_affine_mat_pa_register_hbe_ptr21reload_attributes_refEv
                0x00000000       0x2c bn_hblank_effects_manager.o
 .text._ZN2bn37sprite_affine_mat_pa_register_hbe_ptr17reload_values_refEv
                0x00000000       0x2c bn_hblank_effects_manager.o
 .text._ZN2bn37sprite_affine_mat_pa_register_hbe_ptr4swapERS0_
                0x00000000       0x24 bn_hblank_effects_manager.o
 .text._ZN2bn37sprite_affine_mat_pa_register_hbe_ptrC2EibONS_21sprite_affine_mat_ptrE
                0x00000000       0x10 bn_hblank_effects_manager.o
 .text._ZN2bn37sprite_affine_mat_pb_register_hbe_ptr21reload_attributes_refEv
                0x00000000       0x2c bn_hblank_effects_manager.o
 .text._ZN2bn37sprite_affine_mat_pb_register_hbe_ptr17reload_values_refEv
                0x00000000       0x2c bn_hblank_effects_manager.o
 .text._ZN2bn37sprite_affine_mat_pb_register_hbe_ptr4swapERS0_
                0x00000000       0x24 bn_hblank_effects_manager.o
 .text._ZN2bn37sprite_affine_mat_pb_register_hbe_ptrC2EibONS_21sprite_affine_mat_ptrE
                0x00000000       0x10 bn_hblank_effects_manager.o
 .text._ZN2bn37sprite_affine_mat_pc_register_hbe_ptr21reload_attributes_refEv
                0x00000000       0x2c bn_hblank_effects_manager.o
 .text._ZN2bn37sprite_affine_mat_pc_register_hbe_ptr17reload_values_refEv
                0x00000000       0x2c bn_hblank_effects_manager.o
 .text._ZN2bn37sprite_affine_mat_pc_register_hbe_ptr4swapERS0_
                0x00000000       0x24 bn_hblank_effects_manager.o
 .text._ZN2bn37sprite_affine_mat_pc_register_hbe_ptrC2EibONS_21sprite_affine_mat_ptrE
                0x00000000       0x10 bn_hblank_effects_manager.o
 .text._ZN2bn37sprite_affine_mat_pd_register_hbe_ptr21reload_attributes_refEv
                0x00000000       0x2c bn_hblank_effects_manager.o
 .text._ZN2bn37sprite_affine_mat_pd_register_hbe_ptr17reload_values_refEv
                0x00000000       0x2c bn_hblank_effects_manager.o
 .text._ZN2bn37sprite_affine_mat_pd_register_hbe_ptr4swapERS0_
                0x00000000       0x24 bn_hblank_effects_manager.o
 .text._ZN2bn37sprite_affine_mat_pd_register_hbe_ptrC2EibONS_21sprite_affine_mat_ptrE
                0x00000000       0x10 bn_hblank_effects_manager.o
 .text._ZN2bn39sprite_affine_second_attributes_hbe_ptr21reload_attributes_refEv
                0x00000000       0x2c bn_hblank_effects_manager.o
 .text._ZN2bn39sprite_affine_second_attributes_hbe_ptr4swapERS0_
                0x00000000       0x18 bn_hblank_effects_manager.o
 .text._ZN2bn39sprite_affine_second_attributes_hbe_ptrC2EiONS_10sprite_ptrE
                0x00000000        0xc bn_hblank_effects_manager.o
 .text._ZN2bn31sprite_first_attributes_hbe_ptr21reload_attributes_refEv
                0x00000000       0x2c bn_hblank_effects_manager.o
 .text._ZN2bn31sprite_first_attributes_hbe_ptr4swapERS0_
                0x00000000       0x18 bn_hblank_effects_manager.o
 .text._ZN2bn31sprite_first_attributes_hbe_ptrC2EiONS_10sprite_ptrE
                0x00000000        0xc bn_hblank_effects_manager.o
 .text._ZN2bn28sprite_palette_color_hbe_ptr17reload_colors_refEv
                0x00000000       0x2c bn_hblank_effects_manager.o
 .text._ZN2bn28sprite_palette_color_hbe_ptr4swapERS0_
                0x00000000       0x2c bn_hblank_effects_manager.o
 .text._ZN2bn28sprite_palette_color_hbe_ptrC2EiiONS_18sprite_palette_ptrE
                0x00000000       0x10 bn_hblank_effects_manager.o
 .text._ZN2bn23sprite_position_hbe_ptr17reload_deltas_refEv
                0x00000000       0x2c bn_hblank_effects_manager.o
 .text._ZN2bn23sprite_position_hbe_ptr4swapERS0_
                0x00000000       0x18 bn_hblank_effects_manager.o
 .text._ZN2bn23sprite_position_hbe_ptrC2EiONS_10sprite_ptrE
                0x00000000        0xc bn_hblank_effects_manager.o
 .text._ZN2bn40sprite_regular_second_attributes_hbe_ptr21reload_attributes_refEv
                0x00000000       0x2c bn_hblank_effects_manager.o
 .text._ZN2bn40sprite_regular_second_attributes_hbe_ptr4swapERS0_
                0x00000000       0x18 bn_hblank_effects_manager.o
 .text._ZN2bn40sprite_regular_second_attributes_hbe_ptrC2EiONS_10sprite_ptrE
                0x00000000        0xc bn_hblank_effects_manager.o
 .text._ZN2bn31sprite_third_attributes_hbe_ptr21reload_attributes_refEv
                0x00000000       0x2c bn_hblank_effects_manager.o
 .text._ZN2bn31sprite_third_attributes_hbe_ptr4swapERS0_
                0x00000000       0x18 bn_hblank_effects_manager.o
 .text._ZN2bn31sprite_third_attributes_hbe_ptrC2EiONS_10sprite_ptrE
                0x00000000        0xc bn_hblank_effects_manager.o
 .text._ZN2bn22hblank_effects_manager10used_countEv
                0x00000000       0x1c bn_hblank_effects_manager.o
 .text._ZN2bn22hblank_effects_manager15available_countEv
                0x00000000       0x10 bn_hblank_effects_manager.o
 .text._ZN2bn22hblank_effects_manager6enableEv
                0x00000000       0x24 bn_hblank_effects_manager.o
 .text._ZN2bn22hblank_effects_manager15increase_usagesEi
                0x00000000       0x18 bn_hblank_effects_manager.o
 .text._ZN2bn22hblank_effects_manager10values_refEi
                0x00000000       0x14 bn_hblank_effects_manager.o
 .text._ZN2bn22hblank_effects_manager17reload_values_refEi
                0x00000000       0x28 bn_hblank_effects_manager.o
 .text._ZN2bn22hblank_effects_manager7visibleEi
                0x00000000       0x18 bn_hblank_effects_manager.o
 .text._ZN3_bn6assert9show_argsIA18_ciEEvPKcS4_S4_iRKT_RKT0_
                0x00000000       0x54 bn_hblank_effects_manager.o
 .rodata._ZN2bn22hblank_effects_manager12_GLOBAL__N_19item_type7cleanupEv.str1.4
                0x00000000        0x8 bn_hblank_effects_manager.o
 .text._ZN2bn22hblank_effects_manager12_GLOBAL__N_19item_type7cleanupEv
                0x00000000       0xa0 bn_hblank_effects_manager.o
 .rodata._ZN2bn22hblank_effects_manager12_GLOBAL__N_19item_type7cleanupEv
                0x00000000       0xa8 bn_hblank_effects_manager.o
 .rodata._ZN2bn22hblank_effects_manager12_GLOBAL__N_1L26_update_visible_item_indexEi.str1.4
                0x00000000        0x5 bn_hblank_effects_manager.o
 .text._ZN2bn22hblank_effects_manager12_GLOBAL__N_1L26_update_visible_item_indexEi
                0x00000000       0x9c bn_hblank_effects_manager.o
 .text._ZN2bn22hblank_effects_manager11set_visibleEib
                0x00000000       0x70 bn_hblank_effects_manager.o
 .text._ZN2bn7hbe_ptr11set_visibleEb
                0x00000000       0x70 bn_hblank_effects_manager.o
 .text._ZN2bn36sprite_affine_mat_attributes_hbe_ptr11set_visibleEb
                0x00000000       0x98 bn_hblank_effects_manager.o
 .text._ZN2bn32affine_bg_mat_attributes_hbe_ptr11set_visibleEb
                0x00000000       0xac bn_hblank_effects_manager.o
 .text._ZN2bn40palette_bitmap_bg_mat_attributes_hbe_ptr11set_visibleEb
                0x00000000        0xc bn_hblank_effects_manager.o
 .text._ZN2bn42sp_direct_bitmap_bg_mat_attributes_hbe_ptr11set_visibleEb
                0x00000000        0xc bn_hblank_effects_manager.o
 .text._ZN2bn42dp_direct_bitmap_bg_mat_attributes_hbe_ptr11set_visibleEb
                0x00000000        0xc bn_hblank_effects_manager.o
 .text._ZN3_bn6assert9show_argsIA66_cEEvPKcS4_S4_iRKT_
                0x00000000       0x48 bn_hblank_effects_manager.o
 .text._ZN3_bn6assert9show_argsIA42_cEEvPKcS4_S4_iRKT_
                0x00000000       0x48 bn_hblank_effects_manager.o
 .text._ZN3_bn6assert9show_argsIA22_cEEvPKcS4_S4_iRKT_
                0x00000000       0x48 bn_hblank_effects_manager.o
 .rodata._ZN2bn8optionalINS_29affine_bg_pa_register_hbe_ptrEEdeEv.part.0.str1.4
                0x00000000       0x32 bn_hblank_effects_manager.o
 .text._ZN2bn8optionalINS_29affine_bg_pa_register_hbe_ptrEEdeEv.part.0
                0x00000000       0x28 bn_hblank_effects_manager.o
 .text._ZN3_bn6assert9show_argsIA21_cEEvPKcS4_S4_iRKT_
                0x00000000       0x48 bn_hblank_effects_manager.o
 .text._ZN3_bn6assert9show_argsIJA22_ciA4_ciEEEvPKcS5_S5_iDpRKT_
                0x00000000       0x64 bn_hblank_effects_manager.o
 .text._ZN3_bn6assert9show_argsIA18_cEEvPKcS4_S4_iRKT_
                0x00000000       0x48 bn_hblank_effects_manager.o
 .text._ZN3_bn6assert9show_argsIA25_cEEvPKcS4_S4_iRKT_
                0x00000000       0x48 bn_hblank_effects_manager.o
 .text._ZN3_bn6assert9show_argsIA23_cEEvPKcS4_S4_iRKT_
                0x00000000       0x48 bn_hblank_effects_manager.o
 .text._ZN3_bn6assert9show_argsIA34_cEEvPKcS4_S4_iRKT_
                0x00000000       0x48 bn_hblank_effects_manager.o
 .rodata._ZN2bn22hblank_effects_manager12_GLOBAL__N_1L7_createEPKviNS0_12handler_typeEb.str1.4
                0x00000000       0x95 bn_hblank_effects_manager.o
 .text._ZN2bn22hblank_effects_manager12_GLOBAL__N_1L7_createEPKviNS0_12handler_typeEb
                0x00000000      0x264 bn_hblank_effects_manager.o
 .rodata._ZN2bn22hblank_effects_manager12_GLOBAL__N_1L7_createEPKviNS0_12handler_typeEb
                0x00000000       0xa8 bn_hblank_effects_manager.o
 .text._ZN3_bn6assert9show_argsIJA23_ciA4_ciEEEvPKcS5_S5_iDpRKT_
                0x00000000       0x64 bn_hblank_effects_manager.o
 .rodata._ZN2bn22hblank_effects_manager6createEPKviiNS0_12handler_typeE.str1.4
                0x00000000       0x47 bn_hblank_effects_manager.o
 .text._ZN2bn22hblank_effects_manager6createEPKviiNS0_12handler_typeE
                0x00000000       0x54 bn_hblank_effects_manager.o
 .rodata._ZN2bn22hblank_effects_manager15create_optionalEPKviiNS0_12handler_typeE.str1.4
                0x00000000       0x10 bn_hblank_effects_manager.o
 .text._ZN2bn22hblank_effects_manager15create_optionalEPKviiNS0_12handler_typeE
                0x00000000       0x54 bn_hblank_effects_manager.o
 .rodata._ZN2bn22hblank_effects_manager14set_values_refEiPKvi.str1.4
                0x00000000        0xf bn_hblank_effects_manager.o
 .text._ZN2bn22hblank_effects_manager14set_values_refEiPKvi
                0x00000000       0x90 bn_hblank_effects_manager.o
 .rodata._ZN2bn36sprite_affine_mat_attributes_hbe_ptr18set_attributes_refERKNS_4spanIKNS_21affine_mat_attributesEEE.str1.4
                0x00000000       0xe7 bn_hblank_effects_manager.o
 .text._ZN2bn36sprite_affine_mat_attributes_hbe_ptr18set_attributes_refERKNS_4spanIKNS_21affine_mat_attributesEEE
                0x00000000       0xb0 bn_hblank_effects_manager.o
 .rodata._ZN2bn32affine_bg_mat_attributes_hbe_ptr18set_attributes_refERKNS_4spanIKNS_24affine_bg_mat_attributesEEE.str1.4
                0x00000000       0xef bn_hblank_effects_manager.o
 .text._ZN2bn32affine_bg_mat_attributes_hbe_ptr18set_attributes_refERKNS_4spanIKNS_24affine_bg_mat_attributesEEE
                0x00000000      0x104 bn_hblank_effects_manager.o
 .rodata._ZN2bn40palette_bitmap_bg_mat_attributes_hbe_ptr18set_attributes_refERKNS_4spanIKNS_24affine_bg_mat_attributesEEE.str1.4
                0x00000000      0x11f bn_hblank_effects_manager.o
 .text._ZN2bn40palette_bitmap_bg_mat_attributes_hbe_ptr18set_attributes_refERKNS_4spanIKNS_24affine_bg_mat_attributesEEE
                0x00000000       0xfc bn_hblank_effects_manager.o
 .rodata._ZN2bn42sp_direct_bitmap_bg_mat_attributes_hbe_ptr18set_attributes_refERKNS_4spanIKNS_24affine_bg_mat_attributesEEE.str1.4
                0x00000000      0x135 bn_hblank_effects_manager.o
 .text._ZN2bn42sp_direct_bitmap_bg_mat_attributes_hbe_ptr18set_attributes_refERKNS_4spanIKNS_24affine_bg_mat_attributesEEE
                0x00000000       0xfc bn_hblank_effects_manager.o
 .rodata._ZN2bn42dp_direct_bitmap_bg_mat_attributes_hbe_ptr18set_attributes_refERKNS_4spanIKNS_24affine_bg_mat_attributesEEE.str1.4
                0x00000000      0x135 bn_hblank_effects_manager.o
 .text._ZN2bn42dp_direct_bitmap_bg_mat_attributes_hbe_ptr18set_attributes_refERKNS_4spanIKNS_24affine_bg_mat_attributesEEE
                0x00000000       0xfc bn_hblank_effects_manager.o
 .text._ZN2bn18green_swap_hbe_ptr6createERKNS_4spanIKbEE
                0x00000000       0x5c bn_hblank_effects_manager.o
 .text._ZN2bn37bg_palettes_transparent_color_hbe_ptr6createERKNS_4spanIKNS_5colorEEE
                0x00000000       0x64 bn_hblank_effects_manager.o
 .text._ZN2bn22backdrop_color_hbe_ptr6createERKNS_4spanIKNS_5colorEEE
                0x00000000       0x64 bn_hblank_effects_manager.o
 .text._ZN2bn25mosaic_attributes_hbe_ptr6createERKNS_4spanIKNS_17mosaic_attributesEEE
                0x00000000       0x64 bn_hblank_effects_manager.o
 .text._ZN2bn30rect_window_boundaries_hbe_ptr17create_horizontalENS_11rect_windowERKNS_4spanIKSt4pairINS_7fixed_tILi12EEES5_EEE
                0x00000000       0x68 bn_hblank_effects_manager.o
 .text._ZN2bn30rect_window_boundaries_hbe_ptr15create_verticalENS_11rect_windowERKNS_4spanIKSt4pairINS_7fixed_tILi12EEES5_EEE
                0x00000000       0x68 bn_hblank_effects_manager.o
 .text._ZN2bn29regular_bg_attributes_hbe_ptr6createENS_14regular_bg_ptrERKNS_4spanIKNS_21regular_bg_attributesEEE
                0x00000000       0x6c bn_hblank_effects_manager.o
 .text._ZN2bn28affine_bg_attributes_hbe_ptr6createENS_13affine_bg_ptrERKNS_4spanIKNS_20affine_bg_attributesEEE
                0x00000000       0x80 bn_hblank_effects_manager.o
 .text._ZN2bn27regular_bg_position_hbe_ptr17create_horizontalENS_14regular_bg_ptrERKNS_4spanIKNS_7fixed_tILi12EEEEE
                0x00000000       0x6c bn_hblank_effects_manager.o
 .text._ZN2bn27regular_bg_position_hbe_ptr15create_verticalENS_14regular_bg_ptrERKNS_4spanIKNS_7fixed_tILi12EEEEE
                0x00000000       0x6c bn_hblank_effects_manager.o
 .text._ZN2bn32affine_bg_pivot_position_hbe_ptr17create_horizontalENS_13affine_bg_ptrERKNS_4spanIKNS_7fixed_tILi12EEEEE
                0x00000000       0x6c bn_hblank_effects_manager.o
 .text._ZN2bn32affine_bg_pivot_position_hbe_ptr15create_verticalENS_13affine_bg_ptrERKNS_4spanIKNS_7fixed_tILi12EEEEE
                0x00000000       0x6c bn_hblank_effects_manager.o
 .text._ZN2bn36palette_bitmap_bg_attributes_hbe_ptr6createENS_21palette_bitmap_bg_ptrERKNS_4spanIKNS_20bitmap_bg_attributesEEE
                0x00000000       0x80 bn_hblank_effects_manager.o
 .text._ZN2bn40palette_bitmap_bg_pivot_position_hbe_ptr17create_horizontalENS_21palette_bitmap_bg_ptrERKNS_4spanIKNS_7fixed_tILi12EEEEE
                0x00000000       0x6c bn_hblank_effects_manager.o
 .text._ZN2bn40palette_bitmap_bg_pivot_position_hbe_ptr15create_verticalENS_21palette_bitmap_bg_ptrERKNS_4spanIKNS_7fixed_tILi12EEEEE
                0x00000000       0x6c bn_hblank_effects_manager.o
 .text._ZN2bn38sp_direct_bitmap_bg_attributes_hbe_ptr6createENS_23sp_direct_bitmap_bg_ptrERKNS_4spanIKNS_20bitmap_bg_attributesEEE
                0x00000000       0x80 bn_hblank_effects_manager.o
 .text._ZN2bn42sp_direct_bitmap_bg_pivot_position_hbe_ptr17create_horizontalENS_23sp_direct_bitmap_bg_ptrERKNS_4spanIKNS_7fixed_tILi12EEEEE
                0x00000000       0x6c bn_hblank_effects_manager.o
 .text._ZN2bn42sp_direct_bitmap_bg_pivot_position_hbe_ptr15create_verticalENS_23sp_direct_bitmap_bg_ptrERKNS_4spanIKNS_7fixed_tILi12EEEEE
                0x00000000       0x6c bn_hblank_effects_manager.o
 .text._ZN2bn38dp_direct_bitmap_bg_attributes_hbe_ptr6createENS_23dp_direct_bitmap_bg_ptrERKNS_4spanIKNS_20bitmap_bg_attributesEEE
                0x00000000       0x80 bn_hblank_effects_manager.o
 .text._ZN2bn42dp_direct_bitmap_bg_pivot_position_hbe_ptr17create_horizontalENS_23dp_direct_bitmap_bg_ptrERKNS_4spanIKNS_7fixed_tILi12EEEEE
                0x00000000       0x6c bn_hblank_effects_manager.o
 .text._ZN2bn42dp_direct_bitmap_bg_pivot_position_hbe_ptr15create_verticalENS_23dp_direct_bitmap_bg_ptrERKNS_4spanIKNS_7fixed_tILi12EEEEE
                0x00000000       0x6c bn_hblank_effects_manager.o
 .text._ZN2bn39sprite_affine_second_attributes_hbe_ptr6createENS_10sprite_ptrERKNS_4spanIKNS_31sprite_affine_second_attributesEEE
                0x00000000       0x6c bn_hblank_effects_manager.o
 .text._ZN2bn31sprite_first_attributes_hbe_ptr6createENS_10sprite_ptrERKNS_4spanIKNS_23sprite_first_attributesEEE
                0x00000000       0x6c bn_hblank_effects_manager.o
 .text._ZN2bn23sprite_position_hbe_ptr17create_horizontalENS_10sprite_ptrERKNS_4spanIKNS_7fixed_tILi12EEEEE
                0x00000000       0x6c bn_hblank_effects_manager.o
 .text._ZN2bn23sprite_position_hbe_ptr15create_verticalENS_10sprite_ptrERKNS_4spanIKNS_7fixed_tILi12EEEEE
                0x00000000       0x6c bn_hblank_effects_manager.o
 .text._ZN2bn40sprite_regular_second_attributes_hbe_ptr6createENS_10sprite_ptrERKNS_4spanIKNS_32sprite_regular_second_attributesEEE
                0x00000000       0x6c bn_hblank_effects_manager.o
 .text._ZN2bn31sprite_third_attributes_hbe_ptr6createENS_10sprite_ptrERKNS_4spanIKNS_23sprite_third_attributesEEE
                0x00000000       0x6c bn_hblank_effects_manager.o
 .text._ZN2bn18green_swap_hbe_ptr15create_optionalERKNS_4spanIKbEE
                0x00000000       0x6c bn_hblank_effects_manager.o
 .text._ZN2bn29affine_bg_pa_register_hbe_ptr6createENS_13affine_bg_ptrERKNS_4spanIKNS_24affine_bg_mat_attributesEEE
                0x00000000       0x88 bn_hblank_effects_manager.o
 .text._ZN2bn29affine_bg_pa_register_hbe_ptr6createENS_13affine_bg_ptrERKNS_4spanIKsEE
                0x00000000       0x70 bn_hblank_effects_manager.o
 .text._ZN2bn29affine_bg_pb_register_hbe_ptr6createENS_13affine_bg_ptrERKNS_4spanIKNS_24affine_bg_mat_attributesEEE
                0x00000000       0x88 bn_hblank_effects_manager.o
 .text._ZN2bn29affine_bg_pb_register_hbe_ptr6createENS_13affine_bg_ptrERKNS_4spanIKsEE
                0x00000000       0x70 bn_hblank_effects_manager.o
 .text._ZN2bn29affine_bg_pc_register_hbe_ptr6createENS_13affine_bg_ptrERKNS_4spanIKNS_24affine_bg_mat_attributesEEE
                0x00000000       0x88 bn_hblank_effects_manager.o
 .text._ZN2bn29affine_bg_pc_register_hbe_ptr6createENS_13affine_bg_ptrERKNS_4spanIKsEE
                0x00000000       0x70 bn_hblank_effects_manager.o
 .text._ZN2bn29affine_bg_pd_register_hbe_ptr6createENS_13affine_bg_ptrERKNS_4spanIKNS_24affine_bg_mat_attributesEEE
                0x00000000       0x88 bn_hblank_effects_manager.o
 .text._ZN2bn29affine_bg_pd_register_hbe_ptr6createENS_13affine_bg_ptrERKNS_4spanIKsEE
                0x00000000       0x70 bn_hblank_effects_manager.o
 .text._ZN2bn29affine_bg_dx_register_hbe_ptr6createENS_13affine_bg_ptrERKNS_4spanIKNS_24affine_bg_mat_attributesEEE
                0x00000000       0x88 bn_hblank_effects_manager.o
 .text._ZN2bn29affine_bg_dx_register_hbe_ptr6createENS_13affine_bg_ptrERKNS_4spanIKiEE
                0x00000000       0x70 bn_hblank_effects_manager.o
 .text._ZN2bn29affine_bg_dy_register_hbe_ptr6createENS_13affine_bg_ptrERKNS_4spanIKNS_24affine_bg_mat_attributesEEE
                0x00000000       0x88 bn_hblank_effects_manager.o
 .text._ZN2bn29affine_bg_dy_register_hbe_ptr6createENS_13affine_bg_ptrERKNS_4spanIKiEE
                0x00000000       0x70 bn_hblank_effects_manager.o
 .text._ZN2bn37palette_bitmap_bg_pa_register_hbe_ptr6createENS_21palette_bitmap_bg_ptrERKNS_4spanIKNS_24affine_bg_mat_attributesEEE
                0x00000000       0x88 bn_hblank_effects_manager.o
 .text._ZN2bn37palette_bitmap_bg_pa_register_hbe_ptr6createENS_21palette_bitmap_bg_ptrERKNS_4spanIKsEE
                0x00000000       0x70 bn_hblank_effects_manager.o
 .text._ZN2bn37palette_bitmap_bg_pb_register_hbe_ptr6createENS_21palette_bitmap_bg_ptrERKNS_4spanIKNS_24affine_bg_mat_attributesEEE
                0x00000000       0x88 bn_hblank_effects_manager.o
 .text._ZN2bn37palette_bitmap_bg_pb_register_hbe_ptr6createENS_21palette_bitmap_bg_ptrERKNS_4spanIKsEE
                0x00000000       0x70 bn_hblank_effects_manager.o
 .text._ZN2bn37palette_bitmap_bg_pc_register_hbe_ptr6createENS_21palette_bitmap_bg_ptrERKNS_4spanIKNS_24affine_bg_mat_attributesEEE
                0x00000000       0x88 bn_hblank_effects_manager.o
 .text._ZN2bn37palette_bitmap_bg_pc_register_hbe_ptr6createENS_21palette_bitmap_bg_ptrERKNS_4spanIKsEE
                0x00000000       0x70 bn_hblank_effects_manager.o
 .text._ZN2bn37palette_bitmap_bg_pd_register_hbe_ptr6createENS_21palette_bitmap_bg_ptrERKNS_4spanIKNS_24affine_bg_mat_attributesEEE
                0x00000000       0x88 bn_hblank_effects_manager.o
 .text._ZN2bn37palette_bitmap_bg_pd_register_hbe_ptr6createENS_21palette_bitmap_bg_ptrERKNS_4spanIKsEE
                0x00000000       0x70 bn_hblank_effects_manager.o
 .text._ZN2bn37palette_bitmap_bg_dx_register_hbe_ptr6createENS_21palette_bitmap_bg_ptrERKNS_4spanIKNS_24affine_bg_mat_attributesEEE
                0x00000000       0x88 bn_hblank_effects_manager.o
 .text._ZN2bn37palette_bitmap_bg_dx_register_hbe_ptr6createENS_21palette_bitmap_bg_ptrERKNS_4spanIKiEE
                0x00000000       0x70 bn_hblank_effects_manager.o
 .text._ZN2bn37palette_bitmap_bg_dy_register_hbe_ptr6createENS_21palette_bitmap_bg_ptrERKNS_4spanIKNS_24affine_bg_mat_attributesEEE
                0x00000000       0x88 bn_hblank_effects_manager.o
 .text._ZN2bn37palette_bitmap_bg_dy_register_hbe_ptr6createENS_21palette_bitmap_bg_ptrERKNS_4spanIKiEE
                0x00000000       0x70 bn_hblank_effects_manager.o
 .text._ZN2bn39sp_direct_bitmap_bg_pa_register_hbe_ptr6createENS_23sp_direct_bitmap_bg_ptrERKNS_4spanIKNS_24affine_bg_mat_attributesEEE
                0x00000000       0x88 bn_hblank_effects_manager.o
 .text._ZN2bn39sp_direct_bitmap_bg_pa_register_hbe_ptr6createENS_23sp_direct_bitmap_bg_ptrERKNS_4spanIKsEE
                0x00000000       0x70 bn_hblank_effects_manager.o
 .text._ZN2bn39sp_direct_bitmap_bg_pb_register_hbe_ptr6createENS_23sp_direct_bitmap_bg_ptrERKNS_4spanIKNS_24affine_bg_mat_attributesEEE
                0x00000000       0x88 bn_hblank_effects_manager.o
 .text._ZN2bn39sp_direct_bitmap_bg_pb_register_hbe_ptr6createENS_23sp_direct_bitmap_bg_ptrERKNS_4spanIKsEE
                0x00000000       0x70 bn_hblank_effects_manager.o
 .text._ZN2bn39sp_direct_bitmap_bg_pc_register_hbe_ptr6createENS_23sp_direct_bitmap_bg_ptrERKNS_4spanIKNS_24affine_bg_mat_attributesEEE
                0x00000000       0x88 bn_hblank_effects_manager.o
 .text._ZN2bn39sp_direct_bitmap_bg_pc_register_hbe_ptr6createENS_23sp_direct_bitmap_bg_ptrERKNS_4spanIKsEE
                0x00000000       0x70 bn_hblank_effects_manager.o
 .text._ZN2bn39sp_direct_bitmap_bg_pd_register_hbe_ptr6createENS_23sp_direct_bitmap_bg_ptrERKNS_4spanIKNS_24affine_bg_mat_attributesEEE
                0x00000000       0x88 bn_hblank_effects_manager.o
 .text._ZN2bn39sp_direct_bitmap_bg_pd_register_hbe_ptr6createENS_23sp_direct_bitmap_bg_ptrERKNS_4spanIKsEE
                0x00000000       0x70 bn_hblank_effects_manager.o
 .text._ZN2bn39sp_direct_bitmap_bg_dx_register_hbe_ptr6createENS_23sp_direct_bitmap_bg_ptrERKNS_4spanIKNS_24affine_bg_mat_attributesEEE
                0x00000000       0x88 bn_hblank_effects_manager.o
 .text._ZN2bn39sp_direct_bitmap_bg_dx_register_hbe_ptr6createENS_23sp_direct_bitmap_bg_ptrERKNS_4spanIKiEE
                0x00000000       0x70 bn_hblank_effects_manager.o
 .text._ZN2bn39sp_direct_bitmap_bg_dy_register_hbe_ptr6createENS_23sp_direct_bitmap_bg_ptrERKNS_4spanIKNS_24affine_bg_mat_attributesEEE
                0x00000000       0x88 bn_hblank_effects_manager.o
 .text._ZN2bn39sp_direct_bitmap_bg_dy_register_hbe_ptr6createENS_23sp_direct_bitmap_bg_ptrERKNS_4spanIKiEE
                0x00000000       0x70 bn_hblank_effects_manager.o
 .text._ZN2bn39dp_direct_bitmap_bg_pa_register_hbe_ptr6createENS_23dp_direct_bitmap_bg_ptrERKNS_4spanIKNS_24affine_bg_mat_attributesEEE
                0x00000000       0x88 bn_hblank_effects_manager.o
 .text._ZN2bn39dp_direct_bitmap_bg_pa_register_hbe_ptr6createENS_23dp_direct_bitmap_bg_ptrERKNS_4spanIKsEE
                0x00000000       0x70 bn_hblank_effects_manager.o
 .text._ZN2bn39dp_direct_bitmap_bg_pb_register_hbe_ptr6createENS_23dp_direct_bitmap_bg_ptrERKNS_4spanIKNS_24affine_bg_mat_attributesEEE
                0x00000000       0x88 bn_hblank_effects_manager.o
 .text._ZN2bn39dp_direct_bitmap_bg_pb_register_hbe_ptr6createENS_23dp_direct_bitmap_bg_ptrERKNS_4spanIKsEE
                0x00000000       0x70 bn_hblank_effects_manager.o
 .text._ZN2bn39dp_direct_bitmap_bg_pc_register_hbe_ptr6createENS_23dp_direct_bitmap_bg_ptrERKNS_4spanIKNS_24affine_bg_mat_attributesEEE
                0x00000000       0x88 bn_hblank_effects_manager.o
 .text._ZN2bn39dp_direct_bitmap_bg_pc_register_hbe_ptr6createENS_23dp_direct_bitmap_bg_ptrERKNS_4spanIKsEE
                0x00000000       0x70 bn_hblank_effects_manager.o
 .text._ZN2bn39dp_direct_bitmap_bg_pd_register_hbe_ptr6createENS_23dp_direct_bitmap_bg_ptrERKNS_4spanIKNS_24affine_bg_mat_attributesEEE
                0x00000000       0x88 bn_hblank_effects_manager.o
 .text._ZN2bn39dp_direct_bitmap_bg_pd_register_hbe_ptr6createENS_23dp_direct_bitmap_bg_ptrERKNS_4spanIKsEE
                0x00000000       0x70 bn_hblank_effects_manager.o
 .text._ZN2bn39dp_direct_bitmap_bg_dx_register_hbe_ptr6createENS_23dp_direct_bitmap_bg_ptrERKNS_4spanIKNS_24affine_bg_mat_attributesEEE
                0x00000000       0x88 bn_hblank_effects_manager.o
 .text._ZN2bn39dp_direct_bitmap_bg_dx_register_hbe_ptr6createENS_23dp_direct_bitmap_bg_ptrERKNS_4spanIKiEE
                0x00000000       0x70 bn_hblank_effects_manager.o
 .text._ZN2bn39dp_direct_bitmap_bg_dy_register_hbe_ptr6createENS_23dp_direct_bitmap_bg_ptrERKNS_4spanIKNS_24affine_bg_mat_attributesEEE
                0x00000000       0x88 bn_hblank_effects_manager.o
 .text._ZN2bn39dp_direct_bitmap_bg_dy_register_hbe_ptr6createENS_23dp_direct_bitmap_bg_ptrERKNS_4spanIKiEE
                0x00000000       0x70 bn_hblank_effects_manager.o
 .text._ZN2bn37sprite_affine_mat_pa_register_hbe_ptr6createENS_21sprite_affine_mat_ptrERKNS_4spanIKNS_21affine_mat_attributesEEE
                0x00000000       0x8c bn_hblank_effects_manager.o
 .text._ZN2bn37sprite_affine_mat_pa_register_hbe_ptr6createENS_21sprite_affine_mat_ptrERKNS_4spanIKsEE
                0x00000000       0x74 bn_hblank_effects_manager.o
 .text._ZN2bn37sprite_affine_mat_pb_register_hbe_ptr6createENS_21sprite_affine_mat_ptrERKNS_4spanIKNS_21affine_mat_attributesEEE
                0x00000000       0x8c bn_hblank_effects_manager.o
 .text._ZN2bn37sprite_affine_mat_pb_register_hbe_ptr6createENS_21sprite_affine_mat_ptrERKNS_4spanIKsEE
                0x00000000       0x74 bn_hblank_effects_manager.o
 .text._ZN2bn37sprite_affine_mat_pc_register_hbe_ptr6createENS_21sprite_affine_mat_ptrERKNS_4spanIKNS_21affine_mat_attributesEEE
                0x00000000       0x8c bn_hblank_effects_manager.o
 .text._ZN2bn37sprite_affine_mat_pc_register_hbe_ptr6createENS_21sprite_affine_mat_ptrERKNS_4spanIKsEE
                0x00000000       0x74 bn_hblank_effects_manager.o
 .text._ZN2bn37sprite_affine_mat_pd_register_hbe_ptr6createENS_21sprite_affine_mat_ptrERKNS_4spanIKNS_21affine_mat_attributesEEE
                0x00000000       0x8c bn_hblank_effects_manager.o
 .text._ZN2bn37sprite_affine_mat_pd_register_hbe_ptr6createENS_21sprite_affine_mat_ptrERKNS_4spanIKsEE
                0x00000000       0x74 bn_hblank_effects_manager.o
 .text._ZN2bn37bg_palettes_transparent_color_hbe_ptr15create_optionalERKNS_4spanIKNS_5colorEEE
                0x00000000       0x70 bn_hblank_effects_manager.o
 .text._ZN2bn22backdrop_color_hbe_ptr15create_optionalERKNS_4spanIKNS_5colorEEE
                0x00000000       0x70 bn_hblank_effects_manager.o
 .text._ZN2bn25mosaic_attributes_hbe_ptr15create_optionalERKNS_4spanIKNS_17mosaic_attributesEEE
                0x00000000       0x70 bn_hblank_effects_manager.o
 .rodata._ZN2bn40blending_transparency_attributes_hbe_ptr6createERKNS_4spanIKNS_32blending_transparency_attributesEEE.str1.4
                0x00000000       0x32 bn_hblank_effects_manager.o
 .text._ZN2bn40blending_transparency_attributes_hbe_ptr6createERKNS_4spanIKNS_32blending_transparency_attributesEEE
                0x00000000       0x88 bn_hblank_effects_manager.o
 .text._ZN2bn40blending_transparency_attributes_hbe_ptr15create_optionalERKNS_4spanIKNS_32blending_transparency_attributesEEE
                0x00000000       0x90 bn_hblank_effects_manager.o
 .rodata._ZN2bn24bg_palette_color_hbe_ptr6createENS_14bg_palette_ptrEiRKNS_4spanIKNS_5colorEEE.str1.4
                0x00000000       0x76 bn_hblank_effects_manager.o
 .text._ZN2bn24bg_palette_color_hbe_ptr6createENS_14bg_palette_ptrEiRKNS_4spanIKNS_5colorEEE
                0x00000000       0xc0 bn_hblank_effects_manager.o
 .rodata._ZN2bn28sprite_palette_color_hbe_ptr6createENS_18sprite_palette_ptrEiRKNS_4spanIKNS_5colorEEE.str1.4
                0x00000000       0x26 bn_hblank_effects_manager.o
 .text._ZN2bn28sprite_palette_color_hbe_ptr6createENS_18sprite_palette_ptrEiRKNS_4spanIKNS_5colorEEE
                0x00000000       0xc0 bn_hblank_effects_manager.o
 .text._ZN2bn18green_swap_hbe_ptr14set_states_refERKNS_4spanIKbEE
                0x00000000       0x98 bn_hblank_effects_manager.o
 .text._ZN2bn38sp_direct_bitmap_bg_attributes_hbe_ptr18set_attributes_refERKNS_4spanIKNS_20bitmap_bg_attributesEEE
                0x00000000       0xb4 bn_hblank_effects_manager.o
 .text._ZN2bn38dp_direct_bitmap_bg_attributes_hbe_ptr18set_attributes_refERKNS_4spanIKNS_20bitmap_bg_attributesEEE
                0x00000000       0xb4 bn_hblank_effects_manager.o
 .text._ZN2bn37bg_palettes_transparent_color_hbe_ptr14set_colors_refERKNS_4spanIKNS_5colorEEE
                0x00000000       0xa0 bn_hblank_effects_manager.o
 .text._ZN2bn22backdrop_color_hbe_ptr14set_colors_refERKNS_4spanIKNS_5colorEEE
                0x00000000       0xa0 bn_hblank_effects_manager.o
 .text._ZN2bn28sprite_palette_color_hbe_ptr14set_colors_refERKNS_4spanIKNS_5colorEEE
                0x00000000       0xa0 bn_hblank_effects_manager.o
 .text._ZN2bn32affine_bg_pivot_position_hbe_ptr14set_deltas_refERKNS_4spanIKNS_7fixed_tILi12EEEEE
                0x00000000       0xa0 bn_hblank_effects_manager.o
 .text._ZN2bn40palette_bitmap_bg_pivot_position_hbe_ptr14set_deltas_refERKNS_4spanIKNS_7fixed_tILi12EEEEE
                0x00000000       0xa0 bn_hblank_effects_manager.o
 .text._ZN2bn42sp_direct_bitmap_bg_pivot_position_hbe_ptr14set_deltas_refERKNS_4spanIKNS_7fixed_tILi12EEEEE
                0x00000000       0xa0 bn_hblank_effects_manager.o
 .text._ZN2bn42dp_direct_bitmap_bg_pivot_position_hbe_ptr14set_deltas_refERKNS_4spanIKNS_7fixed_tILi12EEEEE
                0x00000000       0xa0 bn_hblank_effects_manager.o
 .text._ZN2bn23sprite_position_hbe_ptr14set_deltas_refERKNS_4spanIKNS_7fixed_tILi12EEEEE
                0x00000000       0xa0 bn_hblank_effects_manager.o
 .text._ZN2bn24bg_palette_color_hbe_ptr14set_colors_refERKNS_4spanIKNS_5colorEEE
                0x00000000       0xa0 bn_hblank_effects_manager.o
 .text._ZN2bn27blending_fade_alpha_hbe_ptr14set_alphas_refERKNS_4spanIKNS_19blending_fade_alphaEEE
                0x00000000       0xa0 bn_hblank_effects_manager.o
 .text._ZN2bn40blending_transparency_attributes_hbe_ptr18set_attributes_refERKNS_4spanIKNS_32blending_transparency_attributesEEE
                0x00000000       0xa0 bn_hblank_effects_manager.o
 .text._ZN2bn25mosaic_attributes_hbe_ptr18set_attributes_refERKNS_4spanIKNS_17mosaic_attributesEEE
                0x00000000       0xa0 bn_hblank_effects_manager.o
 .text._ZN2bn30rect_window_boundaries_hbe_ptr14set_deltas_refERKNS_4spanIKSt4pairINS_7fixed_tILi12EEES4_EEE
                0x00000000       0xa0 bn_hblank_effects_manager.o
 .text._ZN2bn29regular_bg_attributes_hbe_ptr18set_attributes_refERKNS_4spanIKNS_21regular_bg_attributesEEE
                0x00000000       0xa0 bn_hblank_effects_manager.o
 .text._ZN2bn28affine_bg_attributes_hbe_ptr18set_attributes_refERKNS_4spanIKNS_20affine_bg_attributesEEE
                0x00000000       0xb4 bn_hblank_effects_manager.o
 .text._ZN2bn27regular_bg_position_hbe_ptr14set_deltas_refERKNS_4spanIKNS_7fixed_tILi12EEEEE
                0x00000000       0xa0 bn_hblank_effects_manager.o
 .text._ZN2bn36palette_bitmap_bg_attributes_hbe_ptr18set_attributes_refERKNS_4spanIKNS_20bitmap_bg_attributesEEE
                0x00000000       0xb4 bn_hblank_effects_manager.o
 .text._ZN2bn39sprite_affine_second_attributes_hbe_ptr18set_attributes_refERKNS_4spanIKNS_31sprite_affine_second_attributesEEE
                0x00000000       0xa0 bn_hblank_effects_manager.o
 .text._ZN2bn31sprite_first_attributes_hbe_ptr18set_attributes_refERKNS_4spanIKNS_23sprite_first_attributesEEE
                0x00000000       0xa0 bn_hblank_effects_manager.o
 .text._ZN2bn40sprite_regular_second_attributes_hbe_ptr18set_attributes_refERKNS_4spanIKNS_32sprite_regular_second_attributesEEE
                0x00000000       0xa0 bn_hblank_effects_manager.o
 .text._ZN2bn31sprite_third_attributes_hbe_ptr18set_attributes_refERKNS_4spanIKNS_23sprite_third_attributesEEE
                0x00000000       0xa0 bn_hblank_effects_manager.o
 .text._ZN2bn29affine_bg_pa_register_hbe_ptr18set_attributes_refERKNS_4spanIKNS_24affine_bg_mat_attributesEEE
                0x00000000       0xe0 bn_hblank_effects_manager.o
 .rodata._ZN2bn29affine_bg_pa_register_hbe_ptr14set_values_refERKNS_4spanIKsEE.str1.4
                0x00000000       0x16 bn_hblank_effects_manager.o
 .text._ZN2bn29affine_bg_pa_register_hbe_ptr14set_values_refERKNS_4spanIKsEE
                0x00000000       0xc0 bn_hblank_effects_manager.o
 .text._ZN2bn29affine_bg_pb_register_hbe_ptr18set_attributes_refERKNS_4spanIKNS_24affine_bg_mat_attributesEEE
                0x00000000       0xe0 bn_hblank_effects_manager.o
 .text._ZN2bn29affine_bg_pb_register_hbe_ptr14set_values_refERKNS_4spanIKsEE
                0x00000000       0xc0 bn_hblank_effects_manager.o
 .text._ZN2bn29affine_bg_pc_register_hbe_ptr18set_attributes_refERKNS_4spanIKNS_24affine_bg_mat_attributesEEE
                0x00000000       0xe0 bn_hblank_effects_manager.o
 .text._ZN2bn29affine_bg_pc_register_hbe_ptr14set_values_refERKNS_4spanIKsEE
                0x00000000       0xc0 bn_hblank_effects_manager.o
 .text._ZN2bn29affine_bg_pd_register_hbe_ptr18set_attributes_refERKNS_4spanIKNS_24affine_bg_mat_attributesEEE
                0x00000000       0xe0 bn_hblank_effects_manager.o
 .text._ZN2bn29affine_bg_pd_register_hbe_ptr14set_values_refERKNS_4spanIKsEE
                0x00000000       0xc0 bn_hblank_effects_manager.o
 .text._ZN2bn29affine_bg_dx_register_hbe_ptr18set_attributes_refERKNS_4spanIKNS_24affine_bg_mat_attributesEEE
                0x00000000       0xe0 bn_hblank_effects_manager.o
 .text._ZN2bn29affine_bg_dx_register_hbe_ptr14set_values_refERKNS_4spanIKiEE
                0x00000000       0xc0 bn_hblank_effects_manager.o
 .text._ZN2bn29affine_bg_dy_register_hbe_ptr18set_attributes_refERKNS_4spanIKNS_24affine_bg_mat_attributesEEE
                0x00000000       0xe0 bn_hblank_effects_manager.o
 .text._ZN2bn29affine_bg_dy_register_hbe_ptr14set_values_refERKNS_4spanIKiEE
                0x00000000       0xc0 bn_hblank_effects_manager.o
 .text._ZN2bn37palette_bitmap_bg_pa_register_hbe_ptr18set_attributes_refERKNS_4spanIKNS_24affine_bg_mat_attributesEEE
                0x00000000       0xe0 bn_hblank_effects_manager.o
 .text._ZN2bn37palette_bitmap_bg_pa_register_hbe_ptr14set_values_refERKNS_4spanIKsEE
                0x00000000       0xc0 bn_hblank_effects_manager.o
 .text._ZN2bn37palette_bitmap_bg_pb_register_hbe_ptr18set_attributes_refERKNS_4spanIKNS_24affine_bg_mat_attributesEEE
                0x00000000       0xe0 bn_hblank_effects_manager.o
 .text._ZN2bn37palette_bitmap_bg_pb_register_hbe_ptr14set_values_refERKNS_4spanIKsEE
                0x00000000       0xc0 bn_hblank_effects_manager.o
 .text._ZN2bn37palette_bitmap_bg_pc_register_hbe_ptr18set_attributes_refERKNS_4spanIKNS_24affine_bg_mat_attributesEEE
                0x00000000       0xe0 bn_hblank_effects_manager.o
 .text._ZN2bn37palette_bitmap_bg_pc_register_hbe_ptr14set_values_refERKNS_4spanIKsEE
                0x00000000       0xc0 bn_hblank_effects_manager.o
 .text._ZN2bn37palette_bitmap_bg_pd_register_hbe_ptr18set_attributes_refERKNS_4spanIKNS_24affine_bg_mat_attributesEEE
                0x00000000       0xe0 bn_hblank_effects_manager.o
 .text._ZN2bn37palette_bitmap_bg_pd_register_hbe_ptr14set_values_refERKNS_4spanIKsEE
                0x00000000       0xc0 bn_hblank_effects_manager.o
 .text._ZN2bn37palette_bitmap_bg_dx_register_hbe_ptr18set_attributes_refERKNS_4spanIKNS_24affine_bg_mat_attributesEEE
                0x00000000       0xe0 bn_hblank_effects_manager.o
 .text._ZN2bn37palette_bitmap_bg_dx_register_hbe_ptr14set_values_refERKNS_4spanIKiEE
                0x00000000       0xc0 bn_hblank_effects_manager.o
 .text._ZN2bn37palette_bitmap_bg_dy_register_hbe_ptr18set_attributes_refERKNS_4spanIKNS_24affine_bg_mat_attributesEEE
                0x00000000       0xe0 bn_hblank_effects_manager.o
 .text._ZN2bn37palette_bitmap_bg_dy_register_hbe_ptr14set_values_refERKNS_4spanIKiEE
                0x00000000       0xc0 bn_hblank_effects_manager.o
 .text._ZN2bn39sp_direct_bitmap_bg_pa_register_hbe_ptr18set_attributes_refERKNS_4spanIKNS_24affine_bg_mat_attributesEEE
                0x00000000       0xe0 bn_hblank_effects_manager.o
 .text._ZN2bn39sp_direct_bitmap_bg_pa_register_hbe_ptr14set_values_refERKNS_4spanIKsEE
                0x00000000       0xc0 bn_hblank_effects_manager.o
 .text._ZN2bn39sp_direct_bitmap_bg_pb_register_hbe_ptr18set_attributes_refERKNS_4spanIKNS_24affine_bg_mat_attributesEEE
                0x00000000       0xe0 bn_hblank_effects_manager.o
 .text._ZN2bn39sp_direct_bitmap_bg_pb_register_hbe_ptr14set_values_refERKNS_4spanIKsEE
                0x00000000       0xc0 bn_hblank_effects_manager.o
 .text._ZN2bn39sp_direct_bitmap_bg_pc_register_hbe_ptr18set_attributes_refERKNS_4spanIKNS_24affine_bg_mat_attributesEEE
                0x00000000       0xe0 bn_hblank_effects_manager.o
 .text._ZN2bn39sp_direct_bitmap_bg_pc_register_hbe_ptr14set_values_refERKNS_4spanIKsEE
                0x00000000       0xc0 bn_hblank_effects_manager.o
 .text._ZN2bn39sp_direct_bitmap_bg_pd_register_hbe_ptr18set_attributes_refERKNS_4spanIKNS_24affine_bg_mat_attributesEEE
                0x00000000       0xe0 bn_hblank_effects_manager.o
 .text._ZN2bn39sp_direct_bitmap_bg_pd_register_hbe_ptr14set_values_refERKNS_4spanIKsEE
                0x00000000       0xc0 bn_hblank_effects_manager.o
 .text._ZN2bn39sp_direct_bitmap_bg_dx_register_hbe_ptr18set_attributes_refERKNS_4spanIKNS_24affine_bg_mat_attributesEEE
                0x00000000       0xe0 bn_hblank_effects_manager.o
 .text._ZN2bn39sp_direct_bitmap_bg_dx_register_hbe_ptr14set_values_refERKNS_4spanIKiEE
                0x00000000       0xc0 bn_hblank_effects_manager.o
 .text._ZN2bn39sp_direct_bitmap_bg_dy_register_hbe_ptr18set_attributes_refERKNS_4spanIKNS_24affine_bg_mat_attributesEEE
                0x00000000       0xe0 bn_hblank_effects_manager.o
 .text._ZN2bn39sp_direct_bitmap_bg_dy_register_hbe_ptr14set_values_refERKNS_4spanIKiEE
                0x00000000       0xc0 bn_hblank_effects_manager.o
 .text._ZN2bn39dp_direct_bitmap_bg_pa_register_hbe_ptr18set_attributes_refERKNS_4spanIKNS_24affine_bg_mat_attributesEEE
                0x00000000       0xe0 bn_hblank_effects_manager.o
 .text._ZN2bn39dp_direct_bitmap_bg_pa_register_hbe_ptr14set_values_refERKNS_4spanIKsEE
                0x00000000       0xc0 bn_hblank_effects_manager.o
 .text._ZN2bn39dp_direct_bitmap_bg_pb_register_hbe_ptr18set_attributes_refERKNS_4spanIKNS_24affine_bg_mat_attributesEEE
                0x00000000       0xe0 bn_hblank_effects_manager.o
 .text._ZN2bn39dp_direct_bitmap_bg_pb_register_hbe_ptr14set_values_refERKNS_4spanIKsEE
                0x00000000       0xc0 bn_hblank_effects_manager.o
 .text._ZN2bn39dp_direct_bitmap_bg_pc_register_hbe_ptr18set_attributes_refERKNS_4spanIKNS_24affine_bg_mat_attributesEEE
                0x00000000       0xe0 bn_hblank_effects_manager.o
 .text._ZN2bn39dp_direct_bitmap_bg_pc_register_hbe_ptr14set_values_refERKNS_4spanIKsEE
                0x00000000       0xc0 bn_hblank_effects_manager.o
 .text._ZN2bn39dp_direct_bitmap_bg_pd_register_hbe_ptr18set_attributes_refERKNS_4spanIKNS_24affine_bg_mat_attributesEEE
                0x00000000       0xe0 bn_hblank_effects_manager.o
 .text._ZN2bn39dp_direct_bitmap_bg_pd_register_hbe_ptr14set_values_refERKNS_4spanIKsEE
                0x00000000       0xc0 bn_hblank_effects_manager.o
 .text._ZN2bn39dp_direct_bitmap_bg_dx_register_hbe_ptr18set_attributes_refERKNS_4spanIKNS_24affine_bg_mat_attributesEEE
                0x00000000       0xe0 bn_hblank_effects_manager.o
 .text._ZN2bn39dp_direct_bitmap_bg_dx_register_hbe_ptr14set_values_refERKNS_4spanIKiEE
                0x00000000       0xc0 bn_hblank_effects_manager.o
 .text._ZN2bn39dp_direct_bitmap_bg_dy_register_hbe_ptr18set_attributes_refERKNS_4spanIKNS_24affine_bg_mat_attributesEEE
                0x00000000       0xe0 bn_hblank_effects_manager.o
 .text._ZN2bn39dp_direct_bitmap_bg_dy_register_hbe_ptr14set_values_refERKNS_4spanIKiEE
                0x00000000       0xc0 bn_hblank_effects_manager.o
 .text._ZN2bn37sprite_affine_mat_pa_register_hbe_ptr18set_attributes_refERKNS_4spanIKNS_21affine_mat_attributesEEE
                0x00000000       0xe0 bn_hblank_effects_manager.o
 .text._ZN2bn37sprite_affine_mat_pa_register_hbe_ptr14set_values_refERKNS_4spanIKsEE
                0x00000000       0xc0 bn_hblank_effects_manager.o
 .text._ZN2bn37sprite_affine_mat_pb_register_hbe_ptr18set_attributes_refERKNS_4spanIKNS_21affine_mat_attributesEEE
                0x00000000       0xe0 bn_hblank_effects_manager.o
 .text._ZN2bn37sprite_affine_mat_pb_register_hbe_ptr14set_values_refERKNS_4spanIKsEE
                0x00000000       0xc0 bn_hblank_effects_manager.o
 .text._ZN2bn37sprite_affine_mat_pc_register_hbe_ptr18set_attributes_refERKNS_4spanIKNS_21affine_mat_attributesEEE
                0x00000000       0xe0 bn_hblank_effects_manager.o
 .text._ZN2bn37sprite_affine_mat_pc_register_hbe_ptr14set_values_refERKNS_4spanIKsEE
                0x00000000       0xc0 bn_hblank_effects_manager.o
 .text._ZN2bn37sprite_affine_mat_pd_register_hbe_ptr18set_attributes_refERKNS_4spanIKNS_21affine_mat_attributesEEE
                0x00000000       0xe0 bn_hblank_effects_manager.o
 .text._ZN2bn37sprite_affine_mat_pd_register_hbe_ptr14set_values_refERKNS_4spanIKsEE
                0x00000000       0xc0 bn_hblank_effects_manager.o
 .rodata._ZN2bn27blending_fade_alpha_hbe_ptr6createERKNS_4spanIKNS_19blending_fade_alphaEEE.str1.4
                0x00000000       0x25 bn_hblank_effects_manager.o
 .text._ZN2bn27blending_fade_alpha_hbe_ptr6createERKNS_4spanIKNS_19blending_fade_alphaEEE
                0x00000000       0x94 bn_hblank_effects_manager.o
 .text._ZN2bn27blending_fade_alpha_hbe_ptr15create_optionalERKNS_4spanIKNS_19blending_fade_alphaEEE
                0x00000000       0xa0 bn_hblank_effects_manager.o
 .text._ZN3_bn6assert9show_argsIA15_cEEvPKcS4_S4_iRKT_
                0x00000000       0x48 bn_hblank_effects_manager.o
 .text._ZN2bn22hblank_effects_manager15decrease_usagesEi.part.0
                0x00000000      0x160 bn_hblank_effects_manager.o
 .text._ZN2bn22hblank_effects_manager15decrease_usagesEi
                0x00000000       0x24 bn_hblank_effects_manager.o
 .text._ZN2bn24bg_palette_color_hbe_ptr15create_optionalENS_14bg_palette_ptrEiRKNS_4spanIKNS_5colorEEE
                0x00000000       0xf0 bn_hblank_effects_manager.o
 .text._ZN2bn29regular_bg_attributes_hbe_ptr15create_optionalENS_14regular_bg_ptrERKNS_4spanIKNS_21regular_bg_attributesEEE
                0x00000000       0x94 bn_hblank_effects_manager.o
 .text._ZN2bn28affine_bg_attributes_hbe_ptr15create_optionalENS_13affine_bg_ptrERKNS_4spanIKNS_20affine_bg_attributesEEE
                0x00000000       0xa8 bn_hblank_effects_manager.o
 .text._ZN2bn27regular_bg_position_hbe_ptr24create_vertical_optionalENS_14regular_bg_ptrERKNS_4spanIKNS_7fixed_tILi12EEEEE
                0x00000000       0x94 bn_hblank_effects_manager.o
 .text._ZN2bn32affine_bg_pivot_position_hbe_ptr24create_vertical_optionalENS_13affine_bg_ptrERKNS_4spanIKNS_7fixed_tILi12EEEEE
                0x00000000       0x94 bn_hblank_effects_manager.o
 .text._ZN2bn36palette_bitmap_bg_attributes_hbe_ptr15create_optionalENS_21palette_bitmap_bg_ptrERKNS_4spanIKNS_20bitmap_bg_attributesEEE
                0x00000000       0xa8 bn_hblank_effects_manager.o
 .text._ZN2bn40palette_bitmap_bg_pivot_position_hbe_ptr24create_vertical_optionalENS_21palette_bitmap_bg_ptrERKNS_4spanIKNS_7fixed_tILi12EEEEE
                0x00000000       0x94 bn_hblank_effects_manager.o
 .text._ZN2bn38sp_direct_bitmap_bg_attributes_hbe_ptr15create_optionalENS_23sp_direct_bitmap_bg_ptrERKNS_4spanIKNS_20bitmap_bg_attributesEEE
                0x00000000       0xa8 bn_hblank_effects_manager.o
 .text._ZN2bn42sp_direct_bitmap_bg_pivot_position_hbe_ptr24create_vertical_optionalENS_23sp_direct_bitmap_bg_ptrERKNS_4spanIKNS_7fixed_tILi12EEEEE
                0x00000000       0x94 bn_hblank_effects_manager.o
 .text._ZN2bn38dp_direct_bitmap_bg_attributes_hbe_ptr15create_optionalENS_23dp_direct_bitmap_bg_ptrERKNS_4spanIKNS_20bitmap_bg_attributesEEE
                0x00000000       0xa8 bn_hblank_effects_manager.o
 .text._ZN2bn42dp_direct_bitmap_bg_pivot_position_hbe_ptr24create_vertical_optionalENS_23dp_direct_bitmap_bg_ptrERKNS_4spanIKNS_7fixed_tILi12EEEEE
                0x00000000       0x94 bn_hblank_effects_manager.o
 .text._ZN2bn39sprite_affine_second_attributes_hbe_ptr15create_optionalENS_10sprite_ptrERKNS_4spanIKNS_31sprite_affine_second_attributesEEE
                0x00000000       0x90 bn_hblank_effects_manager.o
 .text._ZN2bn31sprite_first_attributes_hbe_ptr15create_optionalENS_10sprite_ptrERKNS_4spanIKNS_23sprite_first_attributesEEE
                0x00000000       0x90 bn_hblank_effects_manager.o
 .text._ZN2bn28sprite_palette_color_hbe_ptr15create_optionalENS_18sprite_palette_ptrEiRKNS_4spanIKNS_5colorEEE
                0x00000000       0xf0 bn_hblank_effects_manager.o
 .text._ZN2bn23sprite_position_hbe_ptr24create_vertical_optionalENS_10sprite_ptrERKNS_4spanIKNS_7fixed_tILi12EEEEE
                0x00000000       0x94 bn_hblank_effects_manager.o
 .text._ZN2bn40sprite_regular_second_attributes_hbe_ptr15create_optionalENS_10sprite_ptrERKNS_4spanIKNS_32sprite_regular_second_attributesEEE
                0x00000000       0x90 bn_hblank_effects_manager.o
 .text._ZN2bn31sprite_third_attributes_hbe_ptr15create_optionalENS_10sprite_ptrERKNS_4spanIKNS_23sprite_third_attributesEEE
                0x00000000       0x94 bn_hblank_effects_manager.o
 .text._ZN2bn27regular_bg_position_hbe_ptr26create_horizontal_optionalENS_14regular_bg_ptrERKNS_4spanIKNS_7fixed_tILi12EEEEE
                0x00000000       0x94 bn_hblank_effects_manager.o
 .text._ZN2bn32affine_bg_pivot_position_hbe_ptr26create_horizontal_optionalENS_13affine_bg_ptrERKNS_4spanIKNS_7fixed_tILi12EEEEE
                0x00000000       0x94 bn_hblank_effects_manager.o
 .text._ZN2bn40palette_bitmap_bg_pivot_position_hbe_ptr26create_horizontal_optionalENS_21palette_bitmap_bg_ptrERKNS_4spanIKNS_7fixed_tILi12EEEEE
                0x00000000       0x94 bn_hblank_effects_manager.o
 .text._ZN2bn42sp_direct_bitmap_bg_pivot_position_hbe_ptr26create_horizontal_optionalENS_23sp_direct_bitmap_bg_ptrERKNS_4spanIKNS_7fixed_tILi12EEEEE
                0x00000000       0x94 bn_hblank_effects_manager.o
 .text._ZN2bn42dp_direct_bitmap_bg_pivot_position_hbe_ptr26create_horizontal_optionalENS_23dp_direct_bitmap_bg_ptrERKNS_4spanIKNS_7fixed_tILi12EEEEE
                0x00000000       0x94 bn_hblank_effects_manager.o
 .text._ZN2bn23sprite_position_hbe_ptr26create_horizontal_optionalENS_10sprite_ptrERKNS_4spanIKNS_7fixed_tILi12EEEEE
                0x00000000       0x94 bn_hblank_effects_manager.o
 .text._ZN2bn36sprite_affine_mat_attributes_hbe_ptr6createERKNS_21sprite_affine_mat_ptrERKNS_4spanIKNS_21affine_mat_attributesEEE
                0x00000000      0x284 bn_hblank_effects_manager.o
 .text._ZN2bn29affine_bg_pa_register_hbe_ptr15create_optionalENS_13affine_bg_ptrERKNS_4spanIKNS_24affine_bg_mat_attributesEEE
                0x00000000       0xb0 bn_hblank_effects_manager.o
 .text._ZN2bn29affine_bg_pa_register_hbe_ptr15create_optionalENS_13affine_bg_ptrERKNS_4spanIKsEE
                0x00000000       0x98 bn_hblank_effects_manager.o
 .text._ZN2bn29affine_bg_pb_register_hbe_ptr15create_optionalENS_13affine_bg_ptrERKNS_4spanIKNS_24affine_bg_mat_attributesEEE
                0x00000000       0xb0 bn_hblank_effects_manager.o
 .text._ZN2bn29affine_bg_pb_register_hbe_ptr15create_optionalENS_13affine_bg_ptrERKNS_4spanIKsEE
                0x00000000       0x98 bn_hblank_effects_manager.o
 .text._ZN2bn29affine_bg_pc_register_hbe_ptr15create_optionalENS_13affine_bg_ptrERKNS_4spanIKNS_24affine_bg_mat_attributesEEE
                0x00000000       0xb0 bn_hblank_effects_manager.o
 .text._ZN2bn29affine_bg_pc_register_hbe_ptr15create_optionalENS_13affine_bg_ptrERKNS_4spanIKsEE
                0x00000000       0x98 bn_hblank_effects_manager.o
 .text._ZN2bn29affine_bg_pd_register_hbe_ptr15create_optionalENS_13affine_bg_ptrERKNS_4spanIKNS_24affine_bg_mat_attributesEEE
                0x00000000       0xb0 bn_hblank_effects_manager.o
 .text._ZN2bn29affine_bg_pd_register_hbe_ptr15create_optionalENS_13affine_bg_ptrERKNS_4spanIKsEE
                0x00000000       0x98 bn_hblank_effects_manager.o
 .text._ZN2bn29affine_bg_dx_register_hbe_ptr15create_optionalENS_13affine_bg_ptrERKNS_4spanIKNS_24affine_bg_mat_attributesEEE
                0x00000000       0xb0 bn_hblank_effects_manager.o
 .text._ZN2bn29affine_bg_dx_register_hbe_ptr15create_optionalENS_13affine_bg_ptrERKNS_4spanIKiEE
                0x00000000       0x98 bn_hblank_effects_manager.o
 .text._ZN2bn29affine_bg_dy_register_hbe_ptr15create_optionalENS_13affine_bg_ptrERKNS_4spanIKNS_24affine_bg_mat_attributesEEE
                0x00000000       0xb0 bn_hblank_effects_manager.o
 .text._ZN2bn32affine_bg_mat_attributes_hbe_ptr15create_optionalERKNS_13affine_bg_ptrERKNS_4spanIKNS_24affine_bg_mat_attributesEEE
                0x00000000      0x454 bn_hblank_effects_manager.o
 .text._ZN2bn29affine_bg_dy_register_hbe_ptr15create_optionalENS_13affine_bg_ptrERKNS_4spanIKiEE
                0x00000000       0x98 bn_hblank_effects_manager.o
 .text._ZN2bn37palette_bitmap_bg_pa_register_hbe_ptr15create_optionalENS_21palette_bitmap_bg_ptrERKNS_4spanIKNS_24affine_bg_mat_attributesEEE
                0x00000000       0xb0 bn_hblank_effects_manager.o
 .text._ZN2bn37palette_bitmap_bg_pa_register_hbe_ptr15create_optionalENS_21palette_bitmap_bg_ptrERKNS_4spanIKsEE
                0x00000000       0x98 bn_hblank_effects_manager.o
 .text._ZN2bn37palette_bitmap_bg_pb_register_hbe_ptr15create_optionalENS_21palette_bitmap_bg_ptrERKNS_4spanIKNS_24affine_bg_mat_attributesEEE
                0x00000000       0xb0 bn_hblank_effects_manager.o
 .text._ZN2bn37palette_bitmap_bg_pb_register_hbe_ptr15create_optionalENS_21palette_bitmap_bg_ptrERKNS_4spanIKsEE
                0x00000000       0x98 bn_hblank_effects_manager.o
 .text._ZN2bn37palette_bitmap_bg_pc_register_hbe_ptr15create_optionalENS_21palette_bitmap_bg_ptrERKNS_4spanIKNS_24affine_bg_mat_attributesEEE
                0x00000000       0xb0 bn_hblank_effects_manager.o
 .text._ZN2bn37palette_bitmap_bg_pc_register_hbe_ptr15create_optionalENS_21palette_bitmap_bg_ptrERKNS_4spanIKsEE
                0x00000000       0x98 bn_hblank_effects_manager.o
 .text._ZN2bn37palette_bitmap_bg_pd_register_hbe_ptr15create_optionalENS_21palette_bitmap_bg_ptrERKNS_4spanIKNS_24affine_bg_mat_attributesEEE
                0x00000000       0xb0 bn_hblank_effects_manager.o
 .text._ZN2bn37palette_bitmap_bg_pd_register_hbe_ptr15create_optionalENS_21palette_bitmap_bg_ptrERKNS_4spanIKsEE
                0x00000000       0x98 bn_hblank_effects_manager.o
 .text._ZN2bn37palette_bitmap_bg_dx_register_hbe_ptr15create_optionalENS_21palette_bitmap_bg_ptrERKNS_4spanIKNS_24affine_bg_mat_attributesEEE
                0x00000000       0xb0 bn_hblank_effects_manager.o
 .text._ZN2bn37palette_bitmap_bg_dx_register_hbe_ptr15create_optionalENS_21palette_bitmap_bg_ptrERKNS_4spanIKiEE
                0x00000000       0x98 bn_hblank_effects_manager.o
 .text._ZN2bn37palette_bitmap_bg_dy_register_hbe_ptr15create_optionalENS_21palette_bitmap_bg_ptrERKNS_4spanIKNS_24affine_bg_mat_attributesEEE
                0x00000000       0xb0 bn_hblank_effects_manager.o
 .text._ZN2bn40palette_bitmap_bg_mat_attributes_hbe_ptr15create_optionalERKNS_21palette_bitmap_bg_ptrERKNS_4spanIKNS_24affine_bg_mat_attributesEEE
                0x00000000      0x454 bn_hblank_effects_manager.o
 .text._ZN2bn37palette_bitmap_bg_dy_register_hbe_ptr15create_optionalENS_21palette_bitmap_bg_ptrERKNS_4spanIKiEE
                0x00000000       0x98 bn_hblank_effects_manager.o
 .text._ZN2bn39sp_direct_bitmap_bg_pa_register_hbe_ptr15create_optionalENS_23sp_direct_bitmap_bg_ptrERKNS_4spanIKNS_24affine_bg_mat_attributesEEE
                0x00000000       0xb0 bn_hblank_effects_manager.o
 .text._ZN2bn39sp_direct_bitmap_bg_pa_register_hbe_ptr15create_optionalENS_23sp_direct_bitmap_bg_ptrERKNS_4spanIKsEE
                0x00000000       0x98 bn_hblank_effects_manager.o
 .text._ZN2bn39sp_direct_bitmap_bg_pb_register_hbe_ptr15create_optionalENS_23sp_direct_bitmap_bg_ptrERKNS_4spanIKNS_24affine_bg_mat_attributesEEE
                0x00000000       0xb0 bn_hblank_effects_manager.o
 .text._ZN2bn39sp_direct_bitmap_bg_pb_register_hbe_ptr15create_optionalENS_23sp_direct_bitmap_bg_ptrERKNS_4spanIKsEE
                0x00000000       0x98 bn_hblank_effects_manager.o
 .text._ZN2bn39sp_direct_bitmap_bg_pc_register_hbe_ptr15create_optionalENS_23sp_direct_bitmap_bg_ptrERKNS_4spanIKNS_24affine_bg_mat_attributesEEE
                0x00000000       0xb0 bn_hblank_effects_manager.o
 .text._ZN2bn39sp_direct_bitmap_bg_pc_register_hbe_ptr15create_optionalENS_23sp_direct_bitmap_bg_ptrERKNS_4spanIKsEE
                0x00000000       0x98 bn_hblank_effects_manager.o
 .text._ZN2bn39sp_direct_bitmap_bg_pd_register_hbe_ptr15create_optionalENS_23sp_direct_bitmap_bg_ptrERKNS_4spanIKNS_24affine_bg_mat_attributesEEE
                0x00000000       0xb0 bn_hblank_effects_manager.o
 .text._ZN2bn39sp_direct_bitmap_bg_pd_register_hbe_ptr15create_optionalENS_23sp_direct_bitmap_bg_ptrERKNS_4spanIKsEE
                0x00000000       0x98 bn_hblank_effects_manager.o
 .text._ZN2bn39sp_direct_bitmap_bg_dx_register_hbe_ptr15create_optionalENS_23sp_direct_bitmap_bg_ptrERKNS_4spanIKNS_24affine_bg_mat_attributesEEE
                0x00000000       0xb0 bn_hblank_effects_manager.o
 .text._ZN2bn39sp_direct_bitmap_bg_dx_register_hbe_ptr15create_optionalENS_23sp_direct_bitmap_bg_ptrERKNS_4spanIKiEE
                0x00000000       0x98 bn_hblank_effects_manager.o
 .text._ZN2bn39sp_direct_bitmap_bg_dy_register_hbe_ptr15create_optionalENS_23sp_direct_bitmap_bg_ptrERKNS_4spanIKNS_24affine_bg_mat_attributesEEE
                0x00000000       0xb0 bn_hblank_effects_manager.o
 .text._ZN2bn42sp_direct_bitmap_bg_mat_attributes_hbe_ptr15create_optionalERKNS_23sp_direct_bitmap_bg_ptrERKNS_4spanIKNS_24affine_bg_mat_attributesEEE
                0x00000000      0x454 bn_hblank_effects_manager.o
 .text._ZN2bn39sp_direct_bitmap_bg_dy_register_hbe_ptr15create_optionalENS_23sp_direct_bitmap_bg_ptrERKNS_4spanIKiEE
                0x00000000       0x98 bn_hblank_effects_manager.o
 .text._ZN2bn39dp_direct_bitmap_bg_pa_register_hbe_ptr15create_optionalENS_23dp_direct_bitmap_bg_ptrERKNS_4spanIKNS_24affine_bg_mat_attributesEEE
                0x00000000       0xb0 bn_hblank_effects_manager.o
 .text._ZN2bn39dp_direct_bitmap_bg_pa_register_hbe_ptr15create_optionalENS_23dp_direct_bitmap_bg_ptrERKNS_4spanIKsEE
                0x00000000       0x98 bn_hblank_effects_manager.o
 .text._ZN2bn39dp_direct_bitmap_bg_pb_register_hbe_ptr15create_optionalENS_23dp_direct_bitmap_bg_ptrERKNS_4spanIKNS_24affine_bg_mat_attributesEEE
                0x00000000       0xb0 bn_hblank_effects_manager.o
 .text._ZN2bn39dp_direct_bitmap_bg_pb_register_hbe_ptr15create_optionalENS_23dp_direct_bitmap_bg_ptrERKNS_4spanIKsEE
                0x00000000       0x98 bn_hblank_effects_manager.o
 .text._ZN2bn39dp_direct_bitmap_bg_pc_register_hbe_ptr15create_optionalENS_23dp_direct_bitmap_bg_ptrERKNS_4spanIKNS_24affine_bg_mat_attributesEEE
                0x00000000       0xb0 bn_hblank_effects_manager.o
 .text._ZN2bn39dp_direct_bitmap_bg_pc_register_hbe_ptr15create_optionalENS_23dp_direct_bitmap_bg_ptrERKNS_4spanIKsEE
                0x00000000       0x98 bn_hblank_effects_manager.o
 .text._ZN2bn39dp_direct_bitmap_bg_pd_register_hbe_ptr15create_optionalENS_23dp_direct_bitmap_bg_ptrERKNS_4spanIKNS_24affine_bg_mat_attributesEEE
                0x00000000       0xb0 bn_hblank_effects_manager.o
 .text._ZN2bn39dp_direct_bitmap_bg_pd_register_hbe_ptr15create_optionalENS_23dp_direct_bitmap_bg_ptrERKNS_4spanIKsEE
                0x00000000       0x98 bn_hblank_effects_manager.o
 .text._ZN2bn39dp_direct_bitmap_bg_dx_register_hbe_ptr15create_optionalENS_23dp_direct_bitmap_bg_ptrERKNS_4spanIKNS_24affine_bg_mat_attributesEEE
                0x00000000       0xb0 bn_hblank_effects_manager.o
 .text._ZN2bn39dp_direct_bitmap_bg_dx_register_hbe_ptr15create_optionalENS_23dp_direct_bitmap_bg_ptrERKNS_4spanIKiEE
                0x00000000       0x98 bn_hblank_effects_manager.o
 .text._ZN2bn39dp_direct_bitmap_bg_dy_register_hbe_ptr15create_optionalENS_23dp_direct_bitmap_bg_ptrERKNS_4spanIKNS_24affine_bg_mat_attributesEEE
                0x00000000       0xb0 bn_hblank_effects_manager.o
 .text._ZN2bn42dp_direct_bitmap_bg_mat_attributes_hbe_ptr15create_optionalERKNS_23dp_direct_bitmap_bg_ptrERKNS_4spanIKNS_24affine_bg_mat_attributesEEE
                0x00000000      0x454 bn_hblank_effects_manager.o
 .text._ZN2bn39dp_direct_bitmap_bg_dy_register_hbe_ptr15create_optionalENS_23dp_direct_bitmap_bg_ptrERKNS_4spanIKiEE
                0x00000000       0x98 bn_hblank_effects_manager.o
 .text._ZN2bn37sprite_affine_mat_pa_register_hbe_ptr15create_optionalENS_21sprite_affine_mat_ptrERKNS_4spanIKNS_21affine_mat_attributesEEE
                0x00000000       0xb8 bn_hblank_effects_manager.o
 .text._ZN2bn37sprite_affine_mat_pa_register_hbe_ptr15create_optionalENS_21sprite_affine_mat_ptrERKNS_4spanIKsEE
                0x00000000       0x9c bn_hblank_effects_manager.o
 .text._ZN2bn37sprite_affine_mat_pb_register_hbe_ptr15create_optionalENS_21sprite_affine_mat_ptrERKNS_4spanIKNS_21affine_mat_attributesEEE
                0x00000000       0xb8 bn_hblank_effects_manager.o
 .text._ZN2bn37sprite_affine_mat_pb_register_hbe_ptr15create_optionalENS_21sprite_affine_mat_ptrERKNS_4spanIKsEE
                0x00000000       0x9c bn_hblank_effects_manager.o
 .text._ZN2bn37sprite_affine_mat_pc_register_hbe_ptr15create_optionalENS_21sprite_affine_mat_ptrERKNS_4spanIKNS_21affine_mat_attributesEEE
                0x00000000       0xb8 bn_hblank_effects_manager.o
 .text._ZN2bn37sprite_affine_mat_pc_register_hbe_ptr15create_optionalENS_21sprite_affine_mat_ptrERKNS_4spanIKsEE
                0x00000000       0x9c bn_hblank_effects_manager.o
 .text._ZN2bn37sprite_affine_mat_pd_register_hbe_ptr15create_optionalENS_21sprite_affine_mat_ptrERKNS_4spanIKNS_21affine_mat_attributesEEE
                0x00000000       0xb8 bn_hblank_effects_manager.o
 .text._ZN2bn37sprite_affine_mat_pd_register_hbe_ptr15create_optionalENS_21sprite_affine_mat_ptrERKNS_4spanIKsEE
                0x00000000       0x9c bn_hblank_effects_manager.o
 .text._ZN2bn32affine_bg_mat_attributes_hbe_ptr6createERKNS_13affine_bg_ptrERKNS_4spanIKNS_24affine_bg_mat_attributesEEE
                0x00000000      0x37c bn_hblank_effects_manager.o
 .text._ZN2bn40palette_bitmap_bg_mat_attributes_hbe_ptr6createERKNS_21palette_bitmap_bg_ptrERKNS_4spanIKNS_24affine_bg_mat_attributesEEE
                0x00000000      0x37c bn_hblank_effects_manager.o
 .text._ZN2bn42sp_direct_bitmap_bg_mat_attributes_hbe_ptr6createERKNS_23sp_direct_bitmap_bg_ptrERKNS_4spanIKNS_24affine_bg_mat_attributesEEE
                0x00000000      0x37c bn_hblank_effects_manager.o
 .text._ZN2bn42dp_direct_bitmap_bg_mat_attributes_hbe_ptr6createERKNS_23dp_direct_bitmap_bg_ptrERKNS_4spanIKNS_24affine_bg_mat_attributesEEE
                0x00000000      0x37c bn_hblank_effects_manager.o
 .text._ZN2bn36sprite_affine_mat_attributes_hbe_ptr15create_optionalERKNS_21sprite_affine_mat_ptrERKNS_4spanIKNS_21affine_mat_attributesEEE
                0x00000000      0x2b0 bn_hblank_effects_manager.o
 .text._ZN2bn7hbe_ptrD2Ev
                0x00000000       0x34 bn_hblank_effects_manager.o
 .text._ZN2bn7hbe_ptraSERKS0_
                0x00000000       0x54 bn_hblank_effects_manager.o
 .text._ZN2bn30rect_window_boundaries_hbe_ptr26create_horizontal_optionalENS_11rect_windowERKNS_4spanIKSt4pairINS_7fixed_tILi12EEES5_EEE
                0x00000000       0x74 bn_hblank_effects_manager.o
 .text._ZN2bn30rect_window_boundaries_hbe_ptr24create_vertical_optionalENS_11rect_windowERKNS_4spanIKSt4pairINS_7fixed_tILi12EEES5_EEE
                0x00000000       0x74 bn_hblank_effects_manager.o
 .text._ZN3_bn6assert9show_argsIA39_ciEEvPKcS4_S4_iRKT_RKT0_
                0x00000000       0x54 bn_hblank_effects_manager.o
 .rodata._ZNK2bn24bg_palette_color_hbe_ptr10colors_refEv.str1.4
                0x00000000       0x3f bn_hblank_effects_manager.o
 .text._ZNK2bn24bg_palette_color_hbe_ptr10colors_refEv
                0x00000000       0x58 bn_hblank_effects_manager.o
 .text._ZNK2bn27blending_fade_alpha_hbe_ptr10alphas_refEv
                0x00000000       0x58 bn_hblank_effects_manager.o
 .text._ZNK2bn40blending_transparency_attributes_hbe_ptr14attributes_refEv
                0x00000000       0x58 bn_hblank_effects_manager.o
 .text._ZNK2bn18green_swap_hbe_ptr10states_refEv
                0x00000000       0x54 bn_hblank_effects_manager.o
 .text._ZNK2bn25mosaic_attributes_hbe_ptr14attributes_refEv
                0x00000000       0x58 bn_hblank_effects_manager.o
 .text._ZNK2bn30rect_window_boundaries_hbe_ptr10deltas_refEv
                0x00000000       0x58 bn_hblank_effects_manager.o
 .text._ZNK2bn29regular_bg_attributes_hbe_ptr14attributes_refEv
                0x00000000       0x58 bn_hblank_effects_manager.o
 .text._ZNK2bn28affine_bg_attributes_hbe_ptr14attributes_refEv
                0x00000000       0x58 bn_hblank_effects_manager.o
 .text._ZNK2bn27regular_bg_position_hbe_ptr10deltas_refEv
                0x00000000       0x58 bn_hblank_effects_manager.o
 .rodata._ZNK2bn39dp_direct_bitmap_bg_dy_register_hbe_ptr14attributes_refEv.str1.4
                0x00000000        0xf bn_hblank_effects_manager.o
 .text._ZNK2bn39dp_direct_bitmap_bg_dy_register_hbe_ptr14attributes_refEv
                0x00000000       0x7c bn_hblank_effects_manager.o
 .rodata._ZNK2bn37sprite_affine_mat_pd_register_hbe_ptr10values_refEv.str1.4
                0x00000000        0xb bn_hblank_effects_manager.o
 .text._ZNK2bn37sprite_affine_mat_pd_register_hbe_ptr10values_refEv
                0x00000000       0x78 bn_hblank_effects_manager.o
 .text._ZNK2bn39dp_direct_bitmap_bg_dy_register_hbe_ptr10values_refEv
                0x00000000       0x7c bn_hblank_effects_manager.o
 .text._ZNK2bn36palette_bitmap_bg_attributes_hbe_ptr14attributes_refEv
                0x00000000       0x58 bn_hblank_effects_manager.o
 .text._ZNK2bn37sprite_affine_mat_pd_register_hbe_ptr14attributes_refEv
                0x00000000       0x7c bn_hblank_effects_manager.o
 .text._ZNK2bn39sprite_affine_second_attributes_hbe_ptr14attributes_refEv
                0x00000000       0x58 bn_hblank_effects_manager.o
 .text._ZNK2bn31sprite_first_attributes_hbe_ptr14attributes_refEv
                0x00000000       0x58 bn_hblank_effects_manager.o
 .text._ZNK2bn40sprite_regular_second_attributes_hbe_ptr14attributes_refEv
                0x00000000       0x58 bn_hblank_effects_manager.o
 .text._ZNK2bn31sprite_third_attributes_hbe_ptr14attributes_refEv
                0x00000000       0x58 bn_hblank_effects_manager.o
 .text._ZNK2bn37sprite_affine_mat_pa_register_hbe_ptr14attributes_refEv
                0x00000000       0x7c bn_hblank_effects_manager.o
 .text._ZNK2bn37sprite_affine_mat_pb_register_hbe_ptr14attributes_refEv
                0x00000000       0x7c bn_hblank_effects_manager.o
 .text._ZNK2bn37sprite_affine_mat_pc_register_hbe_ptr14attributes_refEv
                0x00000000       0x7c bn_hblank_effects_manager.o
 .text._ZNK2bn38sp_direct_bitmap_bg_attributes_hbe_ptr14attributes_refEv
                0x00000000       0x58 bn_hblank_effects_manager.o
 .text._ZNK2bn38dp_direct_bitmap_bg_attributes_hbe_ptr14attributes_refEv
                0x00000000       0x58 bn_hblank_effects_manager.o
 .text._ZNK2bn29affine_bg_dx_register_hbe_ptr10values_refEv
                0x00000000       0x7c bn_hblank_effects_manager.o
 .text._ZNK2bn29affine_bg_dy_register_hbe_ptr10values_refEv
                0x00000000       0x7c bn_hblank_effects_manager.o
 .text._ZNK2bn37palette_bitmap_bg_dx_register_hbe_ptr10values_refEv
                0x00000000       0x7c bn_hblank_effects_manager.o
 .text._ZNK2bn37palette_bitmap_bg_dy_register_hbe_ptr10values_refEv
                0x00000000       0x7c bn_hblank_effects_manager.o
 .text._ZNK2bn39sp_direct_bitmap_bg_dx_register_hbe_ptr10values_refEv
                0x00000000       0x7c bn_hblank_effects_manager.o
 .text._ZNK2bn39sp_direct_bitmap_bg_dy_register_hbe_ptr10values_refEv
                0x00000000       0x7c bn_hblank_effects_manager.o
 .text._ZNK2bn39dp_direct_bitmap_bg_dx_register_hbe_ptr10values_refEv
                0x00000000       0x7c bn_hblank_effects_manager.o
 .text._ZNK2bn36sprite_affine_mat_attributes_hbe_ptr14attributes_refEv
                0x00000000       0x7c bn_hblank_effects_manager.o
 .text._ZNK2bn37bg_palettes_transparent_color_hbe_ptr10colors_refEv
                0x00000000       0x58 bn_hblank_effects_manager.o
 .text._ZNK2bn22backdrop_color_hbe_ptr10colors_refEv
                0x00000000       0x58 bn_hblank_effects_manager.o
 .text._ZNK2bn28sprite_palette_color_hbe_ptr10colors_refEv
                0x00000000       0x58 bn_hblank_effects_manager.o
 .text._ZNK2bn32affine_bg_pivot_position_hbe_ptr10deltas_refEv
                0x00000000       0x58 bn_hblank_effects_manager.o
 .text._ZNK2bn40palette_bitmap_bg_pivot_position_hbe_ptr10deltas_refEv
                0x00000000       0x58 bn_hblank_effects_manager.o
 .text._ZNK2bn42sp_direct_bitmap_bg_pivot_position_hbe_ptr10deltas_refEv
                0x00000000       0x58 bn_hblank_effects_manager.o
 .text._ZNK2bn42dp_direct_bitmap_bg_pivot_position_hbe_ptr10deltas_refEv
                0x00000000       0x58 bn_hblank_effects_manager.o
 .text._ZNK2bn23sprite_position_hbe_ptr10deltas_refEv
                0x00000000       0x58 bn_hblank_effects_manager.o
 .text._ZNK2bn29affine_bg_pa_register_hbe_ptr10values_refEv
                0x00000000       0x78 bn_hblank_effects_manager.o
 .text._ZNK2bn29affine_bg_pb_register_hbe_ptr10values_refEv
                0x00000000       0x78 bn_hblank_effects_manager.o
 .text._ZNK2bn29affine_bg_pc_register_hbe_ptr10values_refEv
                0x00000000       0x78 bn_hblank_effects_manager.o
 .text._ZNK2bn29affine_bg_pd_register_hbe_ptr10values_refEv
                0x00000000       0x78 bn_hblank_effects_manager.o
 .text._ZNK2bn37palette_bitmap_bg_pa_register_hbe_ptr10values_refEv
                0x00000000       0x78 bn_hblank_effects_manager.o
 .text._ZNK2bn37palette_bitmap_bg_pb_register_hbe_ptr10values_refEv
                0x00000000       0x78 bn_hblank_effects_manager.o
 .text._ZNK2bn37palette_bitmap_bg_pc_register_hbe_ptr10values_refEv
                0x00000000       0x78 bn_hblank_effects_manager.o
 .text._ZNK2bn37palette_bitmap_bg_pd_register_hbe_ptr10values_refEv
                0x00000000       0x78 bn_hblank_effects_manager.o
 .text._ZNK2bn39sp_direct_bitmap_bg_pa_register_hbe_ptr10values_refEv
                0x00000000       0x78 bn_hblank_effects_manager.o
 .text._ZNK2bn39sp_direct_bitmap_bg_pb_register_hbe_ptr10values_refEv
                0x00000000       0x78 bn_hblank_effects_manager.o
 .text._ZNK2bn39sp_direct_bitmap_bg_pc_register_hbe_ptr10values_refEv
                0x00000000       0x78 bn_hblank_effects_manager.o
 .text._ZNK2bn39sp_direct_bitmap_bg_pd_register_hbe_ptr10values_refEv
                0x00000000       0x78 bn_hblank_effects_manager.o
 .text._ZNK2bn39dp_direct_bitmap_bg_pa_register_hbe_ptr10values_refEv
                0x00000000       0x78 bn_hblank_effects_manager.o
 .text._ZNK2bn39dp_direct_bitmap_bg_pb_register_hbe_ptr10values_refEv
                0x00000000       0x78 bn_hblank_effects_manager.o
 .text._ZNK2bn39dp_direct_bitmap_bg_pc_register_hbe_ptr10values_refEv
                0x00000000       0x78 bn_hblank_effects_manager.o
 .text._ZNK2bn39dp_direct_bitmap_bg_pd_register_hbe_ptr10values_refEv
                0x00000000       0x78 bn_hblank_effects_manager.o
 .text._ZNK2bn37sprite_affine_mat_pa_register_hbe_ptr10values_refEv
                0x00000000       0x78 bn_hblank_effects_manager.o
 .text._ZNK2bn37sprite_affine_mat_pb_register_hbe_ptr10values_refEv
                0x00000000       0x78 bn_hblank_effects_manager.o
 .text._ZNK2bn37sprite_affine_mat_pc_register_hbe_ptr10values_refEv
                0x00000000       0x78 bn_hblank_effects_manager.o
 .text._ZNK2bn32affine_bg_mat_attributes_hbe_ptr14attributes_refEv
                0x00000000       0x7c bn_hblank_effects_manager.o
 .text._ZNK2bn40palette_bitmap_bg_mat_attributes_hbe_ptr14attributes_refEv
                0x00000000       0x7c bn_hblank_effects_manager.o
 .text._ZNK2bn42sp_direct_bitmap_bg_mat_attributes_hbe_ptr14attributes_refEv
                0x00000000       0x7c bn_hblank_effects_manager.o
 .text._ZNK2bn42dp_direct_bitmap_bg_mat_attributes_hbe_ptr14attributes_refEv
                0x00000000       0x7c bn_hblank_effects_manager.o
 .text._ZNK2bn29affine_bg_pa_register_hbe_ptr14attributes_refEv
                0x00000000       0x7c bn_hblank_effects_manager.o
 .text._ZNK2bn29affine_bg_pb_register_hbe_ptr14attributes_refEv
                0x00000000       0x7c bn_hblank_effects_manager.o
 .text._ZNK2bn29affine_bg_pc_register_hbe_ptr14attributes_refEv
                0x00000000       0x7c bn_hblank_effects_manager.o
 .text._ZNK2bn29affine_bg_pd_register_hbe_ptr14attributes_refEv
                0x00000000       0x7c bn_hblank_effects_manager.o
 .text._ZNK2bn29affine_bg_dx_register_hbe_ptr14attributes_refEv
                0x00000000       0x7c bn_hblank_effects_manager.o
 .text._ZNK2bn29affine_bg_dy_register_hbe_ptr14attributes_refEv
                0x00000000       0x7c bn_hblank_effects_manager.o
 .text._ZNK2bn37palette_bitmap_bg_pa_register_hbe_ptr14attributes_refEv
                0x00000000       0x7c bn_hblank_effects_manager.o
 .text._ZNK2bn37palette_bitmap_bg_pb_register_hbe_ptr14attributes_refEv
                0x00000000       0x7c bn_hblank_effects_manager.o
 .text._ZNK2bn37palette_bitmap_bg_pc_register_hbe_ptr14attributes_refEv
                0x00000000       0x7c bn_hblank_effects_manager.o
 .text._ZNK2bn37palette_bitmap_bg_pd_register_hbe_ptr14attributes_refEv
                0x00000000       0x7c bn_hblank_effects_manager.o
 .text._ZNK2bn37palette_bitmap_bg_dx_register_hbe_ptr14attributes_refEv
                0x00000000       0x7c bn_hblank_effects_manager.o
 .text._ZNK2bn37palette_bitmap_bg_dy_register_hbe_ptr14attributes_refEv
                0x00000000       0x7c bn_hblank_effects_manager.o
 .text._ZNK2bn39sp_direct_bitmap_bg_pa_register_hbe_ptr14attributes_refEv
                0x00000000       0x7c bn_hblank_effects_manager.o
 .text._ZNK2bn39sp_direct_bitmap_bg_pb_register_hbe_ptr14attributes_refEv
                0x00000000       0x7c bn_hblank_effects_manager.o
 .text._ZNK2bn39sp_direct_bitmap_bg_pc_register_hbe_ptr14attributes_refEv
                0x00000000       0x7c bn_hblank_effects_manager.o
 .text._ZNK2bn39sp_direct_bitmap_bg_pd_register_hbe_ptr14attributes_refEv
                0x00000000       0x7c bn_hblank_effects_manager.o
 .text._ZNK2bn39sp_direct_bitmap_bg_dx_register_hbe_ptr14attributes_refEv
                0x00000000       0x7c bn_hblank_effects_manager.o
 .text._ZNK2bn39sp_direct_bitmap_bg_dy_register_hbe_ptr14attributes_refEv
                0x00000000       0x7c bn_hblank_effects_manager.o
 .text._ZNK2bn39dp_direct_bitmap_bg_pa_register_hbe_ptr14attributes_refEv
                0x00000000       0x7c bn_hblank_effects_manager.o
 .text._ZNK2bn39dp_direct_bitmap_bg_pb_register_hbe_ptr14attributes_refEv
                0x00000000       0x7c bn_hblank_effects_manager.o
 .text._ZNK2bn39dp_direct_bitmap_bg_pc_register_hbe_ptr14attributes_refEv
                0x00000000       0x7c bn_hblank_effects_manager.o
 .text._ZNK2bn39dp_direct_bitmap_bg_pd_register_hbe_ptr14attributes_refEv
                0x00000000       0x7c bn_hblank_effects_manager.o
 .text._ZNK2bn39dp_direct_bitmap_bg_dx_register_hbe_ptr14attributes_refEv
                0x00000000       0x7c bn_hblank_effects_manager.o
 .group         0x00000000        0xc bn_hdma_manager.o
 .group         0x00000000        0xc bn_hdma_manager.o
 .group         0x00000000        0xc bn_hdma_manager.o
 .text          0x00000000        0x0 bn_hdma_manager.o
 .data          0x00000000        0x0 bn_hdma_manager.o
 .bss           0x00000000        0x0 bn_hdma_manager.o
 .text._ZN2bn4hdma7runningEv
                0x00000000       0x28 bn_hdma_manager.o
 .text._ZN2bn4hdma4stopEv
                0x00000000       0x28 bn_hdma_manager.o
 .text._ZN2bn4hdma21high_priority_runningEv
                0x00000000       0x28 bn_hdma_manager.o
 .text._ZN2bn4hdma18high_priority_stopEv
                0x00000000       0x28 bn_hdma_manager.o
 .text._ZN2bn4hdma31high_priority_interrupt_handlerEv
                0x00000000        0xc bn_hdma_manager.o
 .text._ZN2bn12hdma_manager20low_priority_runningEv
                0x00000000       0x28 bn_hdma_manager.o
 .text._ZN2bn12hdma_manager18low_priority_startERKtiRt
                0x00000000       0x34 bn_hdma_manager.o
 .text._ZN2bn12hdma_manager17low_priority_stopEv
                0x00000000       0x28 bn_hdma_manager.o
 .text._ZN2bn12hdma_manager21high_priority_runningEv
                0x00000000       0x28 bn_hdma_manager.o
 .text._ZN2bn12hdma_manager19high_priority_startERKtiRt
                0x00000000       0x38 bn_hdma_manager.o
 .text._ZN2bn12hdma_manager18high_priority_stopEv
                0x00000000       0x28 bn_hdma_manager.o
 .text._ZN2bn12hdma_manager31high_priority_interrupt_handlerEv
                0x00000000        0xc bn_hdma_manager.o
 .text._ZN2bn12hdma_manager35set_high_priority_interrupt_handlerEPFvvE
                0x00000000        0xc bn_hdma_manager.o
 .text._ZN2bn12hdma_manager6enableEv
                0x00000000       0x24 bn_hdma_manager.o
 .text._ZN3_bn6assert9show_argsIA22_ciEEvPKcS4_S4_iRKT_RKT0_
                0x00000000       0x54 bn_hdma_manager.o
 .text._ZN3_bn6assert9show_argsIA19_ciEEvPKcS4_S4_iRKT_RKT0_
                0x00000000       0x54 bn_hdma_manager.o
 .rodata._ZN2bn4hdma5startERKtiRt.str1.4
                0x00000000       0x3b bn_hdma_manager.o
 .text._ZN2bn4hdma5startERKtiRt
                0x00000000       0x64 bn_hdma_manager.o
 .rodata._ZN2bn4hdma19high_priority_startERKtiRt.str1.4
                0x00000000       0x14 bn_hdma_manager.o
 .text._ZN2bn4hdma19high_priority_startERKtiRt
                0x00000000       0x64 bn_hdma_manager.o
 .rodata._ZN2bn4hdma5startERKNS_4spanIKtEERt.str1.4
                0x00000000       0x42 bn_hdma_manager.o
 .text._ZN2bn4hdma5startERKNS_4spanIKtEERt
                0x00000000       0xa4 bn_hdma_manager.o
 .text._ZN2bn4hdma19high_priority_startERKNS_4spanIKtEERt
                0x00000000       0xb0 bn_hdma_manager.o
 .text._ZN3_bn6assert9show_argsIA36_cEEvPKcS4_S4_iRKT_
                0x00000000       0x48 bn_hdma_manager.o
 .rodata._ZN2bn4hdma35set_high_priority_interrupt_handlerEPFvvE.str1.4
                0x00000000       0x4c bn_hdma_manager.o
 .text._ZN2bn4hdma35set_high_priority_interrupt_handlerEPFvvE
                0x00000000       0x38 bn_hdma_manager.o
 .group         0x00000000        0xc bn_keypad_manager.o
 .group         0x00000000        0xc bn_keypad_manager.o
 .group         0x00000000        0xc bn_keypad_manager.o
 .group         0x00000000        0xc bn_keypad_manager.o
 .text          0x00000000        0x0 bn_keypad_manager.o
 .data          0x00000000        0x0 bn_keypad_manager.o
 .bss           0x00000000        0x0 bn_keypad_manager.o
 .text._ZN2bn6keypad4heldENS0_8key_typeE
                0x00000000       0x10 bn_keypad_manager.o
 .text._ZN2bn6keypad7pressedENS0_8key_typeE
                0x00000000       0x10 bn_keypad_manager.o
 .text._ZN2bn6keypad8releasedENS0_8key_typeE
                0x00000000       0x10 bn_keypad_manager.o
 .text._ZN2bn6keypad6a_heldEv
                0x00000000       0x10 bn_keypad_manager.o
 .text._ZN2bn6keypad10a_releasedEv
                0x00000000       0x10 bn_keypad_manager.o
 .text._ZN2bn6keypad6b_heldEv
                0x00000000       0x10 bn_keypad_manager.o
 .text._ZN2bn6keypad10b_releasedEv
                0x00000000       0x10 bn_keypad_manager.o
 .text._ZN2bn6keypad11select_heldEv
                0x00000000       0x10 bn_keypad_manager.o
 .text._ZN2bn6keypad15select_releasedEv
                0x00000000       0x10 bn_keypad_manager.o
 .text._ZN2bn6keypad10start_heldEv
                0x00000000       0x10 bn_keypad_manager.o
 .text._ZN2bn6keypad14start_releasedEv
                0x00000000       0x10 bn_keypad_manager.o
 .text._ZN2bn6keypad14right_releasedEv
                0x00000000       0x10 bn_keypad_manager.o
 .text._ZN2bn6keypad13left_releasedEv
                0x00000000       0x10 bn_keypad_manager.o
 .text._ZN2bn6keypad10up_pressedEv
                0x00000000       0x10 bn_keypad_manager.o
 .text._ZN2bn6keypad11up_releasedEv
                0x00000000       0x10 bn_keypad_manager.o
 .text._ZN2bn6keypad12down_pressedEv
                0x00000000        0xc bn_keypad_manager.o
 .text._ZN2bn6keypad13down_releasedEv
                0x00000000        0xc bn_keypad_manager.o
 .text._ZN2bn6keypad6r_heldEv
                0x00000000       0x10 bn_keypad_manager.o
 .text._ZN2bn6keypad9r_pressedEv
                0x00000000       0x10 bn_keypad_manager.o
 .text._ZN2bn6keypad10r_releasedEv
                0x00000000       0x10 bn_keypad_manager.o
 .text._ZN2bn6keypad6l_heldEv
                0x00000000       0x10 bn_keypad_manager.o
 .text._ZN2bn6keypad9l_pressedEv
                0x00000000       0x10 bn_keypad_manager.o
 .text._ZN2bn6keypad10l_releasedEv
                0x00000000       0x10 bn_keypad_manager.o
 .text._ZN2bn6keypad8any_heldEv
                0x00000000       0x10 bn_keypad_manager.o
 .text._ZN2bn6keypad11any_pressedEv
                0x00000000       0x10 bn_keypad_manager.o
 .text._ZN2bn6keypad12any_releasedEv
                0x00000000       0x10 bn_keypad_manager.o
 .text._ZN2bn14keypad_manager4heldENS_6keypad8key_typeE
                0x00000000       0x10 bn_keypad_manager.o
 .text._ZN2bn14keypad_manager7pressedENS_6keypad8key_typeE
                0x00000000       0x10 bn_keypad_manager.o
 .text._ZN2bn14keypad_manager8releasedENS_6keypad8key_typeE
                0x00000000       0x10 bn_keypad_manager.o
 .text._ZN2bn14keypad_manager8any_heldEv
                0x00000000       0x10 bn_keypad_manager.o
 .text._ZN2bn14keypad_manager11any_pressedEv
                0x00000000       0x10 bn_keypad_manager.o
 .text._ZN2bn14keypad_manager12any_releasedEv
                0x00000000       0x10 bn_keypad_manager.o
 .text._ZN3_bn6assert9show_argsIJA19_ciA4_ciEEEvPKcS5_S5_iDpRKT_
                0x00000000       0x64 bn_keypad_manager.o
 .text._ZN3_bn6assert9show_argsIJA16_ciA4_ciEEEvPKcS5_S5_iDpRKT_
                0x00000000       0x64 bn_keypad_manager.o
 .text._ZN3_bn6assert9show_argsIA24_ciEEvPKcS4_S4_iRKT_RKT0_
                0x00000000       0x54 bn_keypad_manager.o
 .text._ZN3_bn6assert9show_argsIA18_cEEvPKcS4_S4_iRKT_
                0x00000000       0x48 bn_keypad_manager.o
 .rodata._ZN2bn14keypad_manager13set_interruptERKNS_4spanIKNS_6keypad8key_typeEEE.str1.4
                0x00000000       0x26 bn_keypad_manager.o
 .text._ZN2bn14keypad_manager13set_interruptERKNS_4spanIKNS_6keypad8key_typeEEE
                0x00000000       0x4c bn_keypad_manager.o
 .group         0x00000000        0xc bn_link_manager.o
 .group         0x00000000        0xc bn_link_manager.o
 .group         0x00000000        0xc bn_link_manager.o
 .group         0x00000000        0xc bn_link_manager.o
 .group         0x00000000        0xc bn_link_manager.o
 .group         0x00000000        0xc bn_link_manager.o
 .text          0x00000000        0x0 bn_link_manager.o
 .data          0x00000000        0x0 bn_link_manager.o
 .bss           0x00000000        0x0 bn_link_manager.o
 .text._ZN2bn4link10deactivateEv
                0x00000000        0xc bn_link_manager.o
 .text._ZN2bn12link_manager4sendEi
                0x00000000       0x10 bn_link_manager.o
 .text._ZN2bn12link_manager10deactivateEv
                0x00000000        0xc bn_link_manager.o
 .text._ZN2bn12link_manager6enableEv
                0x00000000       0x18 bn_link_manager.o
 .text._ZN3_bn6assert9show_argsIA13_ciEEvPKcS4_S4_iRKT_RKT0_
                0x00000000       0x54 bn_link_manager.o
 .text._ZN3_bn6assert9show_argsIA15_ciEEvPKcS4_S4_iRKT_RKT0_
                0x00000000       0x54 bn_link_manager.o
 .text._ZN3_bn6assert9show_argsIA28_ciEEvPKcS4_S4_iRKT_RKT0_
                0x00000000       0x54 bn_link_manager.o
 .text._ZN3_bn6assert9show_argsIJA23_ciA4_ciEEEvPKcS5_S5_iDpRKT_
                0x00000000       0x64 bn_link_manager.o
 .text._ZN3_bn6assert9show_argsIA23_ciEEvPKcS4_S4_iRKT_RKT0_
                0x00000000       0x54 bn_link_manager.o
 .rodata._ZN2bn4link4sendEi.str1.4
                0x00000000       0x5b bn_link_manager.o
 .text._ZN2bn4link4sendEi
                0x00000000       0x40 bn_link_manager.o
 .text._ZN3_bn6assert9show_argsIA15_cEEvPKcS4_S4_iRKT_
                0x00000000       0x48 bn_link_manager.o
 .rodata._ZN2bn12link_manager7receiveEv.str1.4
                0x00000000      0x13f bn_link_manager.o
 .text._ZN2bn12link_manager7receiveEv
                0x00000000      0x154 bn_link_manager.o
 .text._ZN2bn4link7receiveEv
                0x00000000       0x10 bn_link_manager.o
 .group         0x00000000        0xc bn_memory_manager.o
 .group         0x00000000        0xc bn_memory_manager.o
 .group         0x00000000        0xc bn_memory_manager.o
 .group         0x00000000        0xc bn_memory_manager.o
 .group         0x00000000        0xc bn_memory_manager.o
 .group         0x00000000        0xc bn_memory_manager.o
 .group         0x00000000        0xc bn_memory_manager.o
 .group         0x00000000        0xc bn_memory_manager.o
 .group         0x00000000        0xc bn_memory_manager.o
 .text          0x00000000        0x0 bn_memory_manager.o
 .data          0x00000000        0x0 bn_memory_manager.o
 .bss           0x00000000        0x0 bn_memory_manager.o
 .text._ZdlPv   0x00000000       0x14 bn_memory_manager.o
 .text._ZdaPv   0x00000000       0x14 bn_memory_manager.o
 .text._ZdlPvj  0x00000000       0x14 bn_memory_manager.o
 .text._ZdaPvj  0x00000000       0x14 bn_memory_manager.o
 .text._ZdlPvRKSt9nothrow_t
                0x00000000       0x14 bn_memory_manager.o
 .text._ZdaPvRKSt9nothrow_t
                0x00000000       0x14 bn_memory_manager.o
 .text._ZN3_bn6memory17unsafe_copy_bytesEPKviPv
                0x00000000       0x14 bn_memory_manager.o
 .text._ZN3_bn6memory22unsafe_copy_bytes_vramEPKviPv
                0x00000000       0x20 bn_memory_manager.o
 .text._ZN3_bn6memory22unsafe_copy_half_wordsEPKviPv
                0x00000000       0x14 bn_memory_manager.o
 .text._ZN3_bn6memory17unsafe_copy_wordsEPKviPv
                0x00000000       0x14 bn_memory_manager.o
 .text._ZN3_bn6memory18unsafe_clear_bytesEiPv
                0x00000000       0x14 bn_memory_manager.o
 .text._ZN3_bn6memory23unsafe_clear_half_wordsEiPv
                0x00000000       0x14 bn_memory_manager.o
 .text._ZN3_bn6memory16unsafe_set_bytesEhiPv
                0x00000000       0x14 bn_memory_manager.o
 .text._ZN3_bn6memory21unsafe_set_half_wordsEtiPv
                0x00000000       0x14 bn_memory_manager.o
 .text._ZN3_bn6memory16unsafe_set_wordsEjiPv
                0x00000000       0x14 bn_memory_manager.o
 .text._ZN2bn6memory11ewram_allocEi
                0x00000000       0x14 bn_memory_manager.o
 .text._ZN2bn6memory12ewram_callocEii
                0x00000000       0x18 bn_memory_manager.o
 .text._ZN2bn6memory13ewram_reallocEPvi
                0x00000000       0x18 bn_memory_manager.o
 .text._ZN2bn6memory10ewram_freeEPv
                0x00000000       0x14 bn_memory_manager.o
 .text._ZN2bn6memory16used_alloc_ewramEv
                0x00000000       0x10 bn_memory_manager.o
 .text._ZN2bn6memory21available_alloc_ewramEv
                0x00000000        0xc bn_memory_manager.o
 .text._ZN2bn6memory22log_alloc_ewram_statusEv
                0x00000000       0x14 bn_memory_manager.o
 .text._ZN2bn6memory16used_stack_iwramEv
                0x00000000       0x14 bn_memory_manager.o
 .text._ZN2bn6memory17used_static_iwramEv
                0x00000000       0x10 bn_memory_manager.o
 .text._ZN2bn6memory17used_static_ewramEv
                0x00000000       0x10 bn_memory_manager.o
 .text._ZN2bn6memory8used_romEv
                0x00000000       0x10 bn_memory_manager.o
 .text._ZN2bn6memory10fast_ewramEv
                0x00000000       0x18 bn_memory_manager.o
 .text._ZN2bn6mallocEi
                0x00000000       0x14 bn_memory_manager.o
 .text._ZN2bn6callocEii
                0x00000000       0x18 bn_memory_manager.o
 .text._ZN2bn7reallocEPvi
                0x00000000       0x18 bn_memory_manager.o
 .text._ZN2bn14memory_manager11ewram_allocEi
                0x00000000       0x14 bn_memory_manager.o
 .text._ZN2bn14memory_manager12ewram_callocEii
                0x00000000       0x18 bn_memory_manager.o
 .text._ZN2bn14memory_manager13ewram_reallocEPvi
                0x00000000       0x18 bn_memory_manager.o
 .text._ZN2bn14memory_manager10ewram_freeEPv
                0x00000000       0x14 bn_memory_manager.o
 .text._ZN2bn14memory_manager16used_alloc_ewramEv
                0x00000000       0x10 bn_memory_manager.o
 .text._ZN2bn14memory_manager21available_alloc_ewramEv
                0x00000000        0xc bn_memory_manager.o
 .text._ZN2bn14memory_manager22log_alloc_ewram_statusEv
                0x00000000       0x14 bn_memory_manager.o
 .text._ZN3_bn6assert9show_argsIA35_cjEEvPKcS4_S4_iRKT_RKT0_
                0x00000000       0x54 bn_memory_manager.o
 .rodata._Znwj.str1.4
                0x00000000       0x47 bn_memory_manager.o
 .text._Znwj    0x00000000       0x40 bn_memory_manager.o
 .rodata._Znaj.str1.4
                0x00000000       0x10 bn_memory_manager.o
 .text._Znaj    0x00000000       0x40 bn_memory_manager.o
 .text._ZnwjRKSt9nothrow_t
                0x00000000       0x40 bn_memory_manager.o
 .text._ZnajRKSt9nothrow_t
                0x00000000       0x40 bn_memory_manager.o
 .text._ZN3_bn6assert9show_argsIA15_cEEvPKcS4_S4_iRKT_
                0x00000000       0x48 bn_memory_manager.o
 .text._ZN3_bn6assert9show_argsIA16_ciEEvPKcS4_S4_iRKT_RKT0_
                0x00000000       0x54 bn_memory_manager.o
 .text._ZN3_bn6assert9show_argsIA20_cEEvPKcS4_S4_iRKT_
                0x00000000       0x48 bn_memory_manager.o
 .rodata._ZN2bn6memory14vram_safe_copyEPKviPv.str1.4
                0x00000000       0x50 bn_memory_manager.o
 .text._ZN2bn6memory14vram_safe_copyEPKviPv
                0x00000000       0x80 bn_memory_manager.o
 .rodata._ZN2bn6memory9set_bytesEhiPv.str1.4
                0x00000000        0xa bn_memory_manager.o
 .text._ZN2bn6memory9set_bytesEhiPv
                0x00000000       0x5c bn_memory_manager.o
 .rodata._ZN2bn6memcpyEPvPKvi.str1.4
                0x00000000       0x23 bn_memory_manager.o
 .text._ZN2bn6memcpyEPvPKvi
                0x00000000       0x70 bn_memory_manager.o
 .rodata._ZN2bn6memsetEPvhi.str1.4
                0x00000000        0x7 bn_memory_manager.o
 .text._ZN2bn6memsetEPvhi
                0x00000000       0x58 bn_memory_manager.o
 .rodata._ZN2bn8memclearEPvi.str1.4
                0x00000000        0x9 bn_memory_manager.o
 .text._ZN2bn8memclearEPvi
                0x00000000       0x58 bn_memory_manager.o
 .text._ZN3_bn6assert9show_argsIA21_ciEEvPKcS4_S4_iRKT_RKT0_
                0x00000000       0x54 bn_memory_manager.o
 .text._ZN3_bn6assert9show_argsIA27_cEEvPKcS4_S4_iRKT_
                0x00000000       0x48 bn_memory_manager.o
 .rodata._ZN2bn6memory14set_half_wordsEtiPv.str1.4
                0x00000000       0x6f bn_memory_manager.o
 .text._ZN2bn6memory14set_half_wordsEtiPv
                0x00000000       0x78 bn_memory_manager.o
 .rodata._ZN2bn6memory9set_wordsEjiPv.str1.4
                0x00000000       0x44 bn_memory_manager.o
 .text._ZN2bn6memory9set_wordsEjiPv
                0x00000000       0x78 bn_memory_manager.o
 .text._ZN3_bn6assert9show_argsIA27_ciEEvPKcS4_S4_iRKT_RKT0_
                0x00000000       0x54 bn_memory_manager.o
 .text._ZN3_bn6assert9show_argsIA19_ciEEvPKcS4_S4_iRKT_RKT0_
                0x00000000       0x54 bn_memory_manager.o
 .rodata._ZN2bn6memory4copyIcEEvRKT_iRS2_.str1.4
                0x00000000       0x37 bn_memory_manager.o
 .text._ZN2bn6memory4copyIcEEvRKT_iRS2_
                0x00000000       0x7c bn_memory_manager.o
 .rodata._ZN2bn6memory10decompressENS_16compression_typeEPKviPv.str1.4
                0x00000000       0x27 bn_memory_manager.o
 .text._ZN2bn6memory10decompressENS_16compression_typeEPKviPv
                0x00000000       0xcc bn_memory_manager.o
 .group         0x00000000        0xc bn_palettes_manager.o
 .group         0x00000000        0xc bn_palettes_manager.o
 .group         0x00000000        0xc bn_palettes_manager.o
 .group         0x00000000        0xc bn_palettes_manager.o
 .group         0x00000000        0xc bn_palettes_manager.o
 .group         0x00000000        0xc bn_palettes_manager.o
 .group         0x00000000        0xc bn_palettes_manager.o
 .group         0x00000000        0xc bn_palettes_manager.o
 .group         0x00000000        0xc bn_palettes_manager.o
 .group         0x00000000        0xc bn_palettes_manager.o
 .group         0x00000000        0xc bn_palettes_manager.o
 .group         0x00000000        0xc bn_palettes_manager.o
 .group         0x00000000        0xc bn_palettes_manager.o
 .group         0x00000000        0xc bn_palettes_manager.o
 .group         0x00000000        0xc bn_palettes_manager.o
 .group         0x00000000        0xc bn_palettes_manager.o
 .group         0x00000000        0xc bn_palettes_manager.o
 .group         0x00000000        0xc bn_palettes_manager.o
 .group         0x00000000        0xc bn_palettes_manager.o
 .group         0x00000000        0xc bn_palettes_manager.o
 .group         0x00000000        0xc bn_palettes_manager.o
 .group         0x00000000        0xc bn_palettes_manager.o
 .text          0x00000000        0x0 bn_palettes_manager.o
 .data          0x00000000        0x0 bn_palettes_manager.o
 .bss           0x00000000        0x0 bn_palettes_manager.o
 .text._ZN2bn13ostringstream11append_argsIiJA4_ciEEEvRKT_DpRKT0_.isra.0
                0x00000000       0x24 bn_palettes_manager.o
 .text._ZN2bn11bg_palettes17used_colors_countEv
                0x00000000       0x2c bn_palettes_manager.o
 .text._ZN2bn11bg_palettes22available_colors_countEv
                0x00000000       0x34 bn_palettes_manager.o
 .text._ZN2bn11bg_palettes17transparent_colorEv
                0x00000000        0x8 bn_palettes_manager.o
 .text._ZN2bn11bg_palettes21set_transparent_colorENS_5colorE
                0x00000000       0x40 bn_palettes_manager.o
 .text._ZN2bn11bg_palettes21set_transparent_colorERKNS_8optionalINS_5colorEEE
                0x00000000       0x4c bn_palettes_manager.o
 .text._ZN2bn11bg_palettes24remove_transparent_colorEv
                0x00000000       0x34 bn_palettes_manager.o
 .text._ZN2bn11bg_palettes10brightnessEv
                0x00000000       0x10 bn_palettes_manager.o
 .text._ZN2bn11bg_palettes8contrastEv
                0x00000000       0x10 bn_palettes_manager.o
 .text._ZN2bn11bg_palettes9intensityEv
                0x00000000       0x10 bn_palettes_manager.o
 .text._ZN2bn11bg_palettes8invertedEv
                0x00000000       0x10 bn_palettes_manager.o
 .text._ZN2bn11bg_palettes12set_invertedEb
                0x00000000       0x9c bn_palettes_manager.o
 .text._ZN2bn11bg_palettes19grayscale_intensityEv
                0x00000000       0x10 bn_palettes_manager.o
 .text._ZN2bn11bg_palettes19hue_shift_intensityEv
                0x00000000       0x10 bn_palettes_manager.o
 .text._ZN2bn11bg_palettes10fade_colorEv
                0x00000000       0x10 bn_palettes_manager.o
 .text._ZN2bn11bg_palettes14fade_intensityEv
                0x00000000       0x10 bn_palettes_manager.o
 .text._ZN2bn11bg_palettes14set_fade_colorENS_5colorE
                0x00000000       0x40 bn_palettes_manager.o
 .text._ZN2bn11bg_palettes13custom_effectEv
                0x00000000       0x10 bn_palettes_manager.o
 .text._ZN2bn11bg_palettes17set_custom_effectEPFvNS_4spanINS_5colorEEEE
                0x00000000       0x98 bn_palettes_manager.o
 .text._ZNK2bn14bg_palette_ptr12colors_countEv
                0x00000000       0x18 bn_palettes_manager.o
 .text._ZNK2bn14bg_palette_ptr8invertedEv
                0x00000000       0x20 bn_palettes_manager.o
 .text._ZN2bn14bg_palette_ptr12set_invertedEb
                0x00000000       0x4c bn_palettes_manager.o
 .text._ZNK2bn14bg_palette_ptr19grayscale_intensityEv
                0x00000000       0x14 bn_palettes_manager.o
 .text._ZNK2bn14bg_palette_ptr19hue_shift_intensityEv
                0x00000000       0x14 bn_palettes_manager.o
 .text._ZNK2bn14bg_palette_ptr10fade_colorEv
                0x00000000       0x14 bn_palettes_manager.o
 .text._ZNK2bn14bg_palette_ptr14fade_intensityEv
                0x00000000       0x14 bn_palettes_manager.o
 .text._ZN2bn14bg_palette_ptr14set_fade_colorENS_5colorE
                0x00000000       0x68 bn_palettes_manager.o
 .text._ZNK2bn14bg_palette_ptr12rotate_countEv
                0x00000000       0x14 bn_palettes_manager.o
 .text._ZNK2bn14bg_palette_ptr18rotate_range_startEv
                0x00000000       0x14 bn_palettes_manager.o
 .text._ZNK2bn14bg_palette_ptr17rotate_range_sizeEv
                0x00000000       0x14 bn_palettes_manager.o
 .text._ZN2bn15sprite_palettes17used_colors_countEv
                0x00000000       0x24 bn_palettes_manager.o
 .text._ZN2bn15sprite_palettes22available_colors_countEv
                0x00000000       0x2c bn_palettes_manager.o
 .text._ZN2bn15sprite_palettes10brightnessEv
                0x00000000       0x10 bn_palettes_manager.o
 .text._ZN2bn15sprite_palettes8contrastEv
                0x00000000       0x10 bn_palettes_manager.o
 .text._ZN2bn15sprite_palettes9intensityEv
                0x00000000       0x10 bn_palettes_manager.o
 .text._ZN2bn15sprite_palettes8invertedEv
                0x00000000       0x10 bn_palettes_manager.o
 .text._ZN2bn15sprite_palettes12set_invertedEb
                0x00000000       0x98 bn_palettes_manager.o
 .text._ZN2bn15sprite_palettes19grayscale_intensityEv
                0x00000000       0x10 bn_palettes_manager.o
 .text._ZN2bn15sprite_palettes19hue_shift_intensityEv
                0x00000000       0x10 bn_palettes_manager.o
 .text._ZN2bn15sprite_palettes10fade_colorEv
                0x00000000       0x10 bn_palettes_manager.o
 .text._ZN2bn15sprite_palettes14fade_intensityEv
                0x00000000       0x10 bn_palettes_manager.o
 .text._ZN2bn15sprite_palettes14set_fade_colorENS_5colorE
                0x00000000       0x40 bn_palettes_manager.o
 .text._ZN2bn15sprite_palettes13custom_effectEv
                0x00000000       0x10 bn_palettes_manager.o
 .text._ZN2bn15sprite_palettes17set_custom_effectEPFvNS_4spanINS_5colorEEEE
                0x00000000       0x98 bn_palettes_manager.o
 .text._ZNK2bn18sprite_palette_ptr12colors_countEv
                0x00000000       0x1c bn_palettes_manager.o
 .text._ZNK2bn18sprite_palette_ptr8invertedEv
                0x00000000       0x1c bn_palettes_manager.o
 .text._ZN2bn18sprite_palette_ptr12set_invertedEb
                0x00000000       0x48 bn_palettes_manager.o
 .text._ZNK2bn18sprite_palette_ptr19grayscale_intensityEv
                0x00000000       0x14 bn_palettes_manager.o
 .text._ZNK2bn18sprite_palette_ptr19hue_shift_intensityEv
                0x00000000       0x14 bn_palettes_manager.o
 .text._ZNK2bn18sprite_palette_ptr10fade_colorEv
                0x00000000       0x14 bn_palettes_manager.o
 .text._ZNK2bn18sprite_palette_ptr14fade_intensityEv
                0x00000000       0x14 bn_palettes_manager.o
 .text._ZN2bn18sprite_palette_ptr14set_fade_colorENS_5colorE
                0x00000000       0x58 bn_palettes_manager.o
 .text._ZNK2bn18sprite_palette_ptr12rotate_countEv
                0x00000000       0x18 bn_palettes_manager.o
 .text._ZNK2bn18sprite_palette_ptr18rotate_range_startEv
                0x00000000       0x18 bn_palettes_manager.o
 .text._ZNK2bn18sprite_palette_ptr17rotate_range_sizeEv
                0x00000000       0x18 bn_palettes_manager.o
 .text._ZNK2bn13palettes_bank17used_colors_countEv
                0x00000000       0x20 bn_palettes_manager.o
 .text._ZN2bn11bg_palettes10log_statusEv
                0x00000000       0x14 bn_palettes_manager.o
 .text._ZN2bn15sprite_palettes10log_statusEv
                0x00000000       0x14 bn_palettes_manager.o
 .text._ZN2bn13palettes_bank10find_bpp_8ERKNS_4spanIKNS_5colorEEE
                0x00000000       0x44 bn_palettes_manager.o
 .text._ZN2bn13palettes_bank15increase_usagesEi
                0x00000000       0x10 bn_palettes_manager.o
 .text._ZNK2bn13palettes_bank3bppEi
                0x00000000       0x10 bn_palettes_manager.o
 .text._ZN2bn13palettes_bank12set_invertedEib
                0x00000000       0x3c bn_palettes_manager.o
 .text._ZN2bn13palettes_bank14set_fade_colorEiNS_5colorE
                0x00000000       0x48 bn_palettes_manager.o
 .text._ZN2bn13palettes_bank6reloadEi
                0x00000000       0x1c bn_palettes_manager.o
 .text._ZN2bn13palettes_bank21set_transparent_colorERKNS_8optionalINS_5colorEEE
                0x00000000       0x40 bn_palettes_manager.o
 .text._ZN2bn13palettes_bank12set_invertedEb
                0x00000000       0x94 bn_palettes_manager.o
 .text._ZN2bn13palettes_bank14set_fade_colorENS_5colorE
                0x00000000       0x40 bn_palettes_manager.o
 .text._ZN2bn13palettes_bank17set_custom_effectEPFvNS_4spanINS_5colorEEEE
                0x00000000       0x90 bn_palettes_manager.o
 .text._ZN2bn13palettes_bank17reset_commit_dataEv
                0x00000000       0x20 bn_palettes_manager.o
 .text._ZNK2bn13palettes_bank12_same_colorsERKNS_4spanIKNS_5colorEEEi
                0x00000000       0x44 bn_palettes_manager.o
 .text._ZNK2bn13palettes_bank18_bpp_8_slots_countEv
                0x00000000       0x18 bn_palettes_manager.o
 .text._ZNK2bn13palettes_bank26_first_bpp_4_palette_indexEv
                0x00000000       0x34 bn_palettes_manager.o
 .text._ZN2bn13palettes_bank25_on_global_effect_updatedEb
                0x00000000       0x90 bn_palettes_manager.o
 .text._ZN2bn13palettes_bank20_set_colors_bpp_implEiRKNS_4spanIKNS_5colorEEE
                0x00000000       0x40 bn_palettes_manager.o
 .text._ZN3_bn6assert9show_argsIA15_ciEEvPKcS4_S4_iRKT_RKT0_
                0x00000000       0x54 bn_palettes_manager.o
 .text._ZNK2bn13palettes_bank6colorsEi
                0x00000000       0x58 bn_palettes_manager.o
 .text._ZNK2bn14bg_palette_ptr6colorsEv
                0x00000000       0x60 bn_palettes_manager.o
 .text._ZNK2bn18sprite_palette_ptr6colorsEv
                0x00000000       0x60 bn_palettes_manager.o
 .text._ZN3_bn6assert9show_argsIJA58_ciA4_ciEEEvPKcS5_S5_iDpRKT_
                0x00000000       0x58 bn_palettes_manager.o
 .text._ZN3_bn6assert9show_argsIA27_ciEEvPKcS4_S4_iRKT_RKT0_
                0x00000000       0x54 bn_palettes_manager.o
 .text._ZN3_bn6assert9show_argsIA23_cEEvPKcS4_S4_iRKT_
                0x00000000       0x48 bn_palettes_manager.o
 .text._ZN3_bn6assert9show_argsIJA25_ciA4_ciEEEvPKcS5_S5_iDpRKT_
                0x00000000       0x58 bn_palettes_manager.o
 .text._ZN3_bn6assert9show_argsIJA22_ciA4_ciEEEvPKcS5_S5_iDpRKT_
                0x00000000       0x58 bn_palettes_manager.o
 .text._ZN3_bn6assert9show_argsIJA16_ciA4_caEEEvPKcS5_S5_iDpRKT_
                0x00000000       0x68 bn_palettes_manager.o
 .text._ZN2bn13palettes_bank16set_rotate_countEii
                0x00000000       0x74 bn_palettes_manager.o
 .text._ZN2bn14bg_palette_ptr16set_rotate_countEi
                0x00000000       0x9c bn_palettes_manager.o
 .text._ZN2bn18sprite_palette_ptr16set_rotate_countEi
                0x00000000       0x80 bn_palettes_manager.o
 .text._ZN3_bn6assert9show_argsIJA16_ciA4_ciEEEvPKcS5_S5_iDpRKT_
                0x00000000       0x58 bn_palettes_manager.o
 .text._ZN3_bn6assert9show_argsIJA15_ciA4_ciEEEvPKcS5_S5_iDpRKT_
                0x00000000       0x58 bn_palettes_manager.o
 .text._ZN3_bn6assert9show_argsIJA16_ciA4_ciS3_iEEEvPKcS5_S5_iDpRKT_
                0x00000000       0x68 bn_palettes_manager.o
 .rodata._ZN2bn13palettes_bank16set_rotate_rangeEiii.str1.4
                0x00000000       0xbe bn_palettes_manager.o
 .text._ZN2bn13palettes_bank16set_rotate_rangeEiii
                0x00000000      0x168 bn_palettes_manager.o
 .text._ZN2bn14bg_palette_ptr16set_rotate_rangeEii
                0x00000000       0x1c bn_palettes_manager.o
 .text._ZN2bn18sprite_palette_ptr16set_rotate_rangeEii
                0x00000000       0x1c bn_palettes_manager.o
 .text._ZN3_bn6assert9show_argsIA25_cEEvPKcS4_S4_iRKT_
                0x00000000       0x48 bn_palettes_manager.o
 .rodata._ZN2bn15sprite_palettes20reload_custom_effectEv.str1.4
                0x00000000       0x31 bn_palettes_manager.o
 .text._ZN2bn15sprite_palettes20reload_custom_effectEv
                0x00000000       0x54 bn_palettes_manager.o
 .text._ZN2bn13palettes_bank20reload_custom_effectEv
                0x00000000       0x4c bn_palettes_manager.o
 .text._ZN2bn11bg_palettes20reload_custom_effectEv
                0x00000000       0x54 bn_palettes_manager.o
 .text._ZN2bn13ostringstream6appendILi12EEEvNS_7fixed_tIXT_EEE
                0x00000000       0xa0 bn_palettes_manager.o
 .text._ZN3_bn6assert9show_argsIA20_cN2bn7fixed_tILi12EEEEEvPKcS7_S7_iRKT_RKT0_
                0x00000000       0x54 bn_palettes_manager.o
 .rodata._ZN2bn13palettes_bank23set_grayscale_intensityEiNS_7fixed_tILi12EEE.str1.4
                0x00000000       0x50 bn_palettes_manager.o
 .text._ZN2bn13palettes_bank23set_grayscale_intensityEiNS_7fixed_tILi12EEE
                0x00000000       0x70 bn_palettes_manager.o
 .rodata._ZN2bn13palettes_bank23set_hue_shift_intensityEiNS_7fixed_tILi12EEE.str1.4
                0x00000000       0x18 bn_palettes_manager.o
 .text._ZN2bn13palettes_bank23set_hue_shift_intensityEiNS_7fixed_tILi12EEE
                0x00000000       0x74 bn_palettes_manager.o
 .rodata._ZN2bn13palettes_bank18set_fade_intensityEiNS_7fixed_tILi12EEE.str1.4
                0x00000000       0x13 bn_palettes_manager.o
 .text._ZN2bn13palettes_bank18set_fade_intensityEiNS_7fixed_tILi12EEE
                0x00000000       0x74 bn_palettes_manager.o
 .rodata._ZN2bn13palettes_bank8set_fadeEiNS_5colorENS_7fixed_tILi12EEE.str1.4
                0x00000000        0x9 bn_palettes_manager.o
 .text._ZN2bn13palettes_bank8set_fadeEiNS_5colorENS_7fixed_tILi12EEE
                0x00000000       0x9c bn_palettes_manager.o
 .rodata._ZN2bn13palettes_bank13set_intensityENS_7fixed_tILi12EEE.str1.4
                0x00000000        0xe bn_palettes_manager.o
 .text._ZN2bn13palettes_bank13set_intensityENS_7fixed_tILi12EEE
                0x00000000       0x6c bn_palettes_manager.o
 .text._ZN2bn13palettes_bank23set_grayscale_intensityENS_7fixed_tILi12EEE
                0x00000000       0x68 bn_palettes_manager.o
 .text._ZN2bn13palettes_bank23set_hue_shift_intensityENS_7fixed_tILi12EEE
                0x00000000       0x6c bn_palettes_manager.o
 .text._ZN2bn13palettes_bank18set_fade_intensityENS_7fixed_tILi12EEE
                0x00000000       0x68 bn_palettes_manager.o
 .text._ZN2bn13palettes_bank8set_fadeENS_5colorENS_7fixed_tILi12EEE
                0x00000000       0x94 bn_palettes_manager.o
 .text._ZN2bn14bg_palette_ptr23set_grayscale_intensityENS_7fixed_tILi12EEE
                0x00000000       0x88 bn_palettes_manager.o
 .text._ZN2bn18sprite_palette_ptr23set_grayscale_intensityENS_7fixed_tILi12EEE
                0x00000000       0x7c bn_palettes_manager.o
 .text._ZN2bn14bg_palette_ptr23set_hue_shift_intensityENS_7fixed_tILi12EEE
                0x00000000       0x88 bn_palettes_manager.o
 .text._ZN2bn18sprite_palette_ptr23set_hue_shift_intensityENS_7fixed_tILi12EEE
                0x00000000       0x7c bn_palettes_manager.o
 .text._ZN2bn14bg_palette_ptr18set_fade_intensityENS_7fixed_tILi12EEE
                0x00000000       0x88 bn_palettes_manager.o
 .text._ZN2bn18sprite_palette_ptr18set_fade_intensityENS_7fixed_tILi12EEE
                0x00000000       0x7c bn_palettes_manager.o
 .text._ZN2bn11bg_palettes13set_intensityENS_7fixed_tILi12EEE
                0x00000000       0x78 bn_palettes_manager.o
 .text._ZN2bn15sprite_palettes13set_intensityENS_7fixed_tILi12EEE
                0x00000000       0x74 bn_palettes_manager.o
 .text._ZN2bn11bg_palettes23set_grayscale_intensityENS_7fixed_tILi12EEE
                0x00000000       0x74 bn_palettes_manager.o
 .text._ZN2bn15sprite_palettes23set_grayscale_intensityENS_7fixed_tILi12EEE
                0x00000000       0x70 bn_palettes_manager.o
 .text._ZN2bn11bg_palettes23set_hue_shift_intensityENS_7fixed_tILi12EEE
                0x00000000       0x78 bn_palettes_manager.o
 .text._ZN2bn15sprite_palettes23set_hue_shift_intensityENS_7fixed_tILi12EEE
                0x00000000       0x74 bn_palettes_manager.o
 .text._ZN2bn11bg_palettes18set_fade_intensityENS_7fixed_tILi12EEE
                0x00000000       0x74 bn_palettes_manager.o
 .text._ZN2bn15sprite_palettes18set_fade_intensityENS_7fixed_tILi12EEE
                0x00000000       0x70 bn_palettes_manager.o
 .text._ZN2bn11bg_palettes8set_fadeENS_5colorENS_7fixed_tILi12EEE
                0x00000000       0x98 bn_palettes_manager.o
 .text._ZN2bn15sprite_palettes8set_fadeENS_5colorENS_7fixed_tILi12EEE
                0x00000000       0x94 bn_palettes_manager.o
 .text._ZN2bn14bg_palette_ptr8set_fadeENS_5colorENS_7fixed_tILi12EEE
                0x00000000       0xcc bn_palettes_manager.o
 .text._ZN2bn18sprite_palette_ptr8set_fadeENS_5colorENS_7fixed_tILi12EEE
                0x00000000       0x9c bn_palettes_manager.o
 .text._ZN3_bn6assert9show_argsIA21_cN2bn7fixed_tILi12EEEEEvPKcS7_S7_iRKT_RKT0_
                0x00000000       0x54 bn_palettes_manager.o
 .rodata._ZN2bn13palettes_bank14set_brightnessENS_7fixed_tILi12EEE.str1.4
                0x00000000       0x49 bn_palettes_manager.o
 .text._ZN2bn13palettes_bank14set_brightnessENS_7fixed_tILi12EEE
                0x00000000       0x6c bn_palettes_manager.o
 .text._ZN2bn11bg_palettes14set_brightnessENS_7fixed_tILi12EEE
                0x00000000       0x78 bn_palettes_manager.o
 .text._ZN2bn15sprite_palettes14set_brightnessENS_7fixed_tILi12EEE
                0x00000000       0x74 bn_palettes_manager.o
 .text._ZN3_bn6assert9show_argsIA19_cN2bn7fixed_tILi12EEEEEvPKcS7_S7_iRKT_RKT0_
                0x00000000       0x54 bn_palettes_manager.o
 .rodata._ZN2bn13palettes_bank12set_contrastENS_7fixed_tILi12EEE.str1.4
                0x00000000       0x43 bn_palettes_manager.o
 .text._ZN2bn13palettes_bank12set_contrastENS_7fixed_tILi12EEE
                0x00000000       0x6c bn_palettes_manager.o
 .text._ZN2bn11bg_palettes12set_contrastENS_7fixed_tILi12EEE
                0x00000000       0x74 bn_palettes_manager.o
 .text._ZN2bn15sprite_palettes12set_contrastENS_7fixed_tILi12EEE
                0x00000000       0x70 bn_palettes_manager.o
 .text._ZN3_bn6assert9show_argsIA39_ciEEvPKcS4_S4_iRKT_RKT0_
                0x00000000       0x54 bn_palettes_manager.o
 .text._ZN3_bn6assert9show_argsIA17_cEEvPKcS4_S4_iRKT_
                0x00000000       0x48 bn_palettes_manager.o
 .text._ZN3_bn6assert9show_argsIA25_ciEEvPKcS4_S4_iRKT_RKT0_
                0x00000000       0x54 bn_palettes_manager.o
 .text._ZN3_bn6assert9show_argsIA26_cEEvPKcS4_S4_iRKT_
                0x00000000       0x48 bn_palettes_manager.o
 .text._ZNK2bn15bg_palette_item14create_paletteEv
                0x00000000       0x10 bn_palettes_manager.o
 .text._ZN2bn14bg_palette_ptr15create_optionalERKNS_15bg_palette_itemE
                0x00000000       0x64 bn_palettes_manager.o
 .text._ZNK2bn15bg_palette_item23create_palette_optionalEv
                0x00000000       0x10 bn_palettes_manager.o
 .text._ZN2bn18sprite_palette_ptr15create_optionalERKNS_19sprite_palette_itemE
                0x00000000       0x58 bn_palettes_manager.o
 .text._ZNK2bn19sprite_palette_item14create_paletteEv
                0x00000000       0x48 bn_palettes_manager.o
 .text._ZNK2bn19sprite_palette_item23create_palette_optionalEv
                0x00000000       0x58 bn_palettes_manager.o
 .text._ZN2bn18sprite_palette_ptr19create_new_optionalERKNS_19sprite_palette_itemE
                0x00000000       0xcc bn_palettes_manager.o
 .text._ZNK2bn19sprite_palette_item27create_new_palette_optionalEv
                0x00000000       0x10 bn_palettes_manager.o
 .text._ZN2bn14bg_palette_ptr19create_new_optionalERKNS_15bg_palette_itemE
                0x00000000       0xdc bn_palettes_manager.o
 .text._ZNK2bn15bg_palette_item27create_new_palette_optionalEv
                0x00000000       0x10 bn_palettes_manager.o
 .text._ZNK2bn19sprite_palette_item18create_new_paletteEv
                0x00000000       0xc4 bn_palettes_manager.o
 .text._ZN2bn14bg_palette_ptr10create_newERKNS_15bg_palette_itemE
                0x00000000       0xd0 bn_palettes_manager.o
 .text._ZNK2bn15bg_palette_item18create_new_paletteEv
                0x00000000       0x10 bn_palettes_manager.o
 .text._ZN2bn18sprite_palette_ptr10create_newERKNS_19sprite_palette_itemE
                0x00000000       0xc4 bn_palettes_manager.o
 .text._ZN2bn18sprite_palette_ptraSERKS0_
                0x00000000       0x40 bn_palettes_manager.o
 .text._ZN2bn14bg_palette_ptr4findERKNS_15bg_palette_itemE
                0x00000000      0x120 bn_palettes_manager.o
 .text._ZNK2bn15bg_palette_item12find_paletteEv
                0x00000000       0x10 bn_palettes_manager.o
 .text._ZN2bn18sprite_palette_ptr4findERKNS_19sprite_palette_itemE
                0x00000000      0x100 bn_palettes_manager.o
 .text._ZNK2bn19sprite_palette_item12find_paletteEv
                0x00000000       0x10 bn_palettes_manager.o
 .rodata._ZN2bn13palettes_bank10set_colorsEiRKNS_4spanIKNS_5colorEEE.str1.4
                0x00000000       0x25 bn_palettes_manager.o
 .text._ZN2bn13palettes_bank10set_colorsEiRKNS_4spanIKNS_5colorEEE
                0x00000000      0x100 bn_palettes_manager.o
 .text._ZN2bn14bg_palette_ptr10set_colorsERKNS_4spanIKNS_5colorEEE
                0x00000000       0x18 bn_palettes_manager.o
 .text._ZN2bn14bg_palette_ptr10set_colorsERKNS_15bg_palette_itemE
                0x00000000       0x58 bn_palettes_manager.o
 .text._ZN2bn18sprite_palette_ptr10set_colorsERKNS_4spanIKNS_5colorEEE
                0x00000000       0x18 bn_palettes_manager.o
 .text._ZN2bn18sprite_palette_ptr10set_colorsERKNS_19sprite_palette_itemE
                0x00000000       0x58 bn_palettes_manager.o
 .rodata._ZN2bn13palettes_bank9set_colorEiiNS_5colorE.str1.4
                0x00000000       0x52 bn_palettes_manager.o
 .text._ZN2bn13palettes_bank9set_colorEiiNS_5colorE
                0x00000000      0x124 bn_palettes_manager.o
 .text._ZN2bn14bg_palette_ptr9set_colorEiNS_5colorE
                0x00000000       0x1c bn_palettes_manager.o
 .text._ZN2bn18sprite_palette_ptr9set_colorEiNS_5colorE
                0x00000000       0x1c bn_palettes_manager.o
 .text          0x00000000        0x0 bn_profiler.o
 .data          0x00000000        0x0 bn_profiler.o
 .bss           0x00000000        0x0 bn_profiler.o
 .debug_info    0x00000000      0x45f bn_profiler.o
 .debug_abbrev  0x00000000       0xdc bn_profiler.o
 .debug_aranges
                0x00000000       0x18 bn_profiler.o
 .debug_line    0x00000000      0x263 bn_profiler.o
 .debug_str     0x00000000      0x4c5 bn_profiler.o
 .comment       0x00000000       0x19 bn_profiler.o
 .group         0x00000000        0xc bn_regular_bg_animate_actions.o
 .group         0x00000000        0xc bn_regular_bg_animate_actions.o
 .group         0x00000000        0xc bn_regular_bg_animate_actions.o
 .group         0x00000000        0xc bn_regular_bg_animate_actions.o
 .group         0x00000000        0xc bn_regular_bg_animate_actions.o
 .group         0x00000000        0xc bn_regular_bg_animate_actions.o
 .group         0x00000000        0xc bn_regular_bg_animate_actions.o
 .group         0x00000000        0xc bn_regular_bg_animate_actions.o
 .group         0x00000000        0xc bn_regular_bg_animate_actions.o
 .text          0x00000000        0x0 bn_regular_bg_animate_actions.o
 .data          0x00000000        0x0 bn_regular_bg_animate_actions.o
 .bss           0x00000000        0x0 bn_regular_bg_animate_actions.o
 .text._ZN2bn13ostringstream11append_argsIiJA4_ciEEEvRKT_DpRKT0_.isra.0
                0x00000000       0x24 bn_regular_bg_animate_actions.o
 .text._ZN2bn26iregular_bg_animate_action9_set_refsERNS_14regular_bg_ptrERNS_19regular_bg_map_itemERNS_7ivectorItEE
                0x00000000        0x4 bn_regular_bg_animate_actions.o
 .text._ZN2bn26iregular_bg_animate_action7_assignERKS0_
                0x00000000       0x10 bn_regular_bg_animate_actions.o
 .text._ZN2bn33iregular_bg_cached_animate_action9_set_refsERNS_14regular_bg_ptrERNS_7ivectorINS_18regular_bg_map_ptrEEE
                0x00000000        0x4 bn_regular_bg_animate_actions.o
 .text._ZN2bn33iregular_bg_cached_animate_action7_assignERKS0_
                0x00000000       0x10 bn_regular_bg_animate_actions.o
 .text._ZN3_bn6assert9show_argsIJA16_ciA4_ciEEEvPKcS5_S5_iDpRKT_
                0x00000000       0x58 bn_regular_bg_animate_actions.o
 .text._ZN3_bn6assert9show_argsIJA23_ciA4_ciEEEvPKcS5_S5_iDpRKT_
                0x00000000       0x58 bn_regular_bg_animate_actions.o
 .text._ZN3_bn6assert9show_argsIA15_cEEvPKcS4_S4_iRKT_
                0x00000000       0x48 bn_regular_bg_animate_actions.o
 .rodata._ZN2bn26iregular_bg_animate_action6updateEv.str1.4
                0x00000000       0x90 bn_regular_bg_animate_actions.o
 .text._ZN2bn26iregular_bg_animate_action6updateEv
                0x00000000       0xb8 bn_regular_bg_animate_actions.o
 .text._ZN2bn33iregular_bg_cached_animate_action6updateEv
                0x00000000       0xa4 bn_regular_bg_animate_actions.o
 .text._ZN3_bn6assert9show_argsIA23_ciEEvPKcS4_S4_iRKT_RKT0_
                0x00000000       0x54 bn_regular_bg_animate_actions.o
 .text._ZN3_bn6assert9show_argsIA24_ciEEvPKcS4_S4_iRKT_RKT0_
                0x00000000       0x54 bn_regular_bg_animate_actions.o
 .rodata._ZN2bn26iregular_bg_animate_action16set_wait_updatesEi.str1.4
                0x00000000       0x98 bn_regular_bg_animate_actions.o
 .text._ZN2bn26iregular_bg_animate_action16set_wait_updatesEi
                0x00000000       0x68 bn_regular_bg_animate_actions.o
 .text._ZN2bn33iregular_bg_cached_animate_action16set_wait_updatesEi
                0x00000000       0x68 bn_regular_bg_animate_actions.o
 .text._ZN3_bn6assert9show_argsIA28_ciEEvPKcS4_S4_iRKT_RKT0_
                0x00000000       0x54 bn_regular_bg_animate_actions.o
 .rodata._ZN2bn26iregular_bg_animate_action19_assign_map_indexesERKNS_4spanIKtEE.str1.4
                0x00000000       0x9f bn_regular_bg_animate_actions.o
 .text._ZN2bn26iregular_bg_animate_action19_assign_map_indexesERKNS_4spanIKtEE
                0x00000000       0x84 bn_regular_bg_animate_actions.o
 .text._ZN3_bn6assert9show_argsIJA28_ciA4_ciEEEvPKcS5_S5_iDpRKT_
                0x00000000       0x58 bn_regular_bg_animate_actions.o
 .rodata._ZN2bn33iregular_bg_cached_animate_action19_assign_map_indexesERKNS_19regular_bg_map_itemERKNS_4spanIKtEE.str1.4
                0x00000000       0x46 bn_regular_bg_animate_actions.o
 .text._ZN2bn33iregular_bg_cached_animate_action19_assign_map_indexesERKNS_19regular_bg_map_itemERKNS_4spanIKtEE
                0x00000000      0x104 bn_regular_bg_animate_actions.o
 .text._ZN3_bn6assert9show_argsIJA21_ciA4_ciEEEvPKcS5_S5_iDpRKT_
                0x00000000       0x58 bn_regular_bg_animate_actions.o
 .rodata._ZN2bn33iregular_bg_cached_animate_action12_assign_mapsENS_4spanINS_18regular_bg_map_ptrEEE.str1.4
                0x00000000       0x5d bn_regular_bg_animate_actions.o
 .text._ZN2bn33iregular_bg_cached_animate_action12_assign_mapsENS_4spanINS_18regular_bg_map_ptrEEE
                0x00000000       0x9c bn_regular_bg_animate_actions.o
 .text._ZN3_bn6assert9show_argsIJA19_ciA4_ciEEEvPKcS5_S5_iDpRKT_
                0x00000000       0x58 bn_regular_bg_animate_actions.o
 .rodata._ZN2bn33iregular_bg_cached_animate_actionaSERKS0_.str1.4
                0x00000000       0x77 bn_regular_bg_animate_actions.o
 .text._ZN2bn33iregular_bg_cached_animate_actionaSERKS0_
                0x00000000       0xf8 bn_regular_bg_animate_actions.o
 .text._ZN2bn33iregular_bg_cached_animate_actionaSEOS0_
                0x00000000      0x114 bn_regular_bg_animate_actions.o
 .rodata._ZN2bn26iregular_bg_animate_actionaSEOS0_.str1.4
                0x00000000       0x4f bn_regular_bg_animate_actions.o
 .text._ZN2bn26iregular_bg_animate_actionaSEOS0_
                0x00000000       0xcc bn_regular_bg_animate_actions.o
 .text._ZN2bn33iregular_bg_cached_animate_action12_assign_mapsERKNS_7ivectorINS_18regular_bg_map_ptrEEE
                0x00000000       0x8c bn_regular_bg_animate_actions.o
 .text._ZN2bn33iregular_bg_cached_animate_action12_assign_mapsEONS_7ivectorINS_18regular_bg_map_ptrEEE
                0x00000000       0xa0 bn_regular_bg_animate_actions.o
 .text._ZN2bn26iregular_bg_animate_action19_assign_map_indexesERKNS_7ivectorItEE
                0x00000000       0x60 bn_regular_bg_animate_actions.o
 .text._ZN2bn26iregular_bg_animate_actionaSERKS0_
                0x00000000       0xcc bn_regular_bg_animate_actions.o
 .debug_info    0x00000000     0xc4fd bn_regular_bg_animate_actions.o
 .debug_abbrev  0x00000000      0xc91 bn_regular_bg_animate_actions.o
 .debug_loc     0x00000000     0x2ad3 bn_regular_bg_animate_actions.o
 .debug_aranges
                0x00000000       0xf8 bn_regular_bg_animate_actions.o
 .debug_ranges  0x00000000      0x708 bn_regular_bg_animate_actions.o
 .debug_line    0x00000000     0x1f0c bn_regular_bg_animate_actions.o
 .debug_str     0x00000000     0x9c7b bn_regular_bg_animate_actions.o
 .comment       0x00000000       0x19 bn_regular_bg_animate_actions.o
 .debug_frame   0x00000000      0x398 bn_regular_bg_animate_actions.o
 .group         0x00000000        0xc bn_sprite_affine_mats_manager.o
 .group         0x00000000        0xc bn_sprite_affine_mats_manager.o
 .group         0x00000000        0xc bn_sprite_affine_mats_manager.o
 .group         0x00000000        0xc bn_sprite_affine_mats_manager.o
 .group         0x00000000        0xc bn_sprite_affine_mats_manager.o
 .group         0x00000000        0xc bn_sprite_affine_mats_manager.o
 .group         0x00000000        0xc bn_sprite_affine_mats_manager.o
 .group         0x00000000        0xc bn_sprite_affine_mats_manager.o
 .group         0x00000000        0xc bn_sprite_affine_mats_manager.o
 .group         0x00000000        0xc bn_sprite_affine_mats_manager.o
 .group         0x00000000        0xc bn_sprite_affine_mats_manager.o
 .text          0x00000000        0x0 bn_sprite_affine_mats_manager.o
 .data          0x00000000        0x0 bn_sprite_affine_mats_manager.o
 .bss           0x00000000        0x0 bn_sprite_affine_mats_manager.o
 .text._ZN2bn26sprite_affine_mats_manager12_GLOBAL__N_1L24_update_flipped_identityEi
                0x00000000       0xcc bn_sprite_affine_mats_manager.o
 .text._ZN2bn18sprite_affine_mats10used_countEv
                0x00000000       0x1c bn_sprite_affine_mats_manager.o
 .text._ZN2bn18sprite_affine_mats15available_countEv
                0x00000000       0x10 bn_sprite_affine_mats_manager.o
 .text._ZN2bn21sprite_affine_mat_ptrC2ERKS0_
                0x00000000       0x20 bn_sprite_affine_mats_manager.o
 .text._ZNK2bn21sprite_affine_mat_ptr14rotation_angleEv
                0x00000000       0x14 bn_sprite_affine_mats_manager.o
 .text._ZNK2bn21sprite_affine_mat_ptr16horizontal_scaleEv
                0x00000000       0x14 bn_sprite_affine_mats_manager.o
 .text._ZNK2bn21sprite_affine_mat_ptr14vertical_scaleEv
                0x00000000       0x14 bn_sprite_affine_mats_manager.o
 .text._ZNK2bn21sprite_affine_mat_ptr16horizontal_shearEv
                0x00000000       0x14 bn_sprite_affine_mats_manager.o
 .text._ZN2bn21sprite_affine_mat_ptr20set_horizontal_shearENS_7fixed_tILi12EEE
                0x00000000       0x90 bn_sprite_affine_mats_manager.o
 .text._ZNK2bn21sprite_affine_mat_ptr14vertical_shearEv
                0x00000000       0x14 bn_sprite_affine_mats_manager.o
 .text._ZN2bn21sprite_affine_mat_ptr18set_vertical_shearENS_7fixed_tILi12EEE
                0x00000000       0x8c bn_sprite_affine_mats_manager.o
 .text._ZN2bn21sprite_affine_mat_ptr19set_horizontal_flipEb
                0x00000000       0x88 bn_sprite_affine_mats_manager.o
 .text._ZN2bn21sprite_affine_mat_ptr17set_vertical_flipEb
                0x00000000       0x94 bn_sprite_affine_mats_manager.o
 .text._ZNK2bn21sprite_affine_mat_ptr10attributesEv
                0x00000000       0x14 bn_sprite_affine_mats_manager.o
 .text._ZNK2bn21sprite_affine_mat_ptr8identityEv
                0x00000000       0x4c bn_sprite_affine_mats_manager.o
 .text._ZN2bn26sprite_affine_mats_manager10used_countEv
                0x00000000       0x1c bn_sprite_affine_mats_manager.o
 .text._ZN2bn26sprite_affine_mats_manager15available_countEv
                0x00000000       0x10 bn_sprite_affine_mats_manager.o
 .text._ZN2bn26sprite_affine_mats_manager15increase_usagesEi
                0x00000000       0x18 bn_sprite_affine_mats_manager.o
 .text._ZN2bn26sprite_affine_mats_manager14rotation_angleEi
                0x00000000       0x10 bn_sprite_affine_mats_manager.o
 .text._ZN2bn26sprite_affine_mats_manager16horizontal_scaleEi
                0x00000000       0x10 bn_sprite_affine_mats_manager.o
 .text._ZN2bn26sprite_affine_mats_manager14vertical_scaleEi
                0x00000000       0x10 bn_sprite_affine_mats_manager.o
 .text._ZN2bn26sprite_affine_mats_manager16horizontal_shearEi
                0x00000000       0x10 bn_sprite_affine_mats_manager.o
 .text._ZN2bn26sprite_affine_mats_manager20set_horizontal_shearEiNS_7fixed_tILi12EEE
                0x00000000       0x8c bn_sprite_affine_mats_manager.o
 .text._ZN2bn26sprite_affine_mats_manager14vertical_shearEi
                0x00000000       0x10 bn_sprite_affine_mats_manager.o
 .text._ZN2bn26sprite_affine_mats_manager18set_vertical_shearEiNS_7fixed_tILi12EEE
                0x00000000       0x8c bn_sprite_affine_mats_manager.o
 .text._ZN2bn26sprite_affine_mats_manager9set_shearEiNS_7fixed_tILi12EEE
                0x00000000       0xe4 bn_sprite_affine_mats_manager.o
 .text._ZN2bn21sprite_affine_mat_ptr9set_shearENS_7fixed_tILi12EEE
                0x00000000       0x14 bn_sprite_affine_mats_manager.o
 .text._ZN2bn26sprite_affine_mats_manager9set_shearEiNS_7fixed_tILi12EEES2_
                0x00000000       0xe8 bn_sprite_affine_mats_manager.o
 .text._ZN2bn21sprite_affine_mat_ptr9set_shearENS_7fixed_tILi12EEES2_
                0x00000000       0x14 bn_sprite_affine_mats_manager.o
 .text._ZN2bn26sprite_affine_mats_manager15horizontal_flipEi
                0x00000000       0x14 bn_sprite_affine_mats_manager.o
 .text._ZN2bn26sprite_affine_mats_manager19set_horizontal_flipEib
                0x00000000       0x84 bn_sprite_affine_mats_manager.o
 .text._ZN2bn26sprite_affine_mats_manager13vertical_flipEi
                0x00000000       0x14 bn_sprite_affine_mats_manager.o
 .text._ZN2bn26sprite_affine_mats_manager17set_vertical_flipEib
                0x00000000       0x8c bn_sprite_affine_mats_manager.o
 .text._ZN2bn26sprite_affine_mats_manager10attributesEi
                0x00000000       0x10 bn_sprite_affine_mats_manager.o
 .text._ZN2bn26sprite_affine_mats_manager14set_attributesEiRKNS_21affine_mat_attributesE
                0x00000000      0x114 bn_sprite_affine_mats_manager.o
 .text._ZN2bn21sprite_affine_mat_ptr14set_attributesERKNS_21affine_mat_attributesE
                0x00000000       0x14 bn_sprite_affine_mats_manager.o
 .text._ZN2bn26sprite_affine_mats_manager8identityEi
                0x00000000       0x48 bn_sprite_affine_mats_manager.o
 .text._ZN2bn26sprite_affine_mats_manager16flipped_identityEi
                0x00000000       0x10 bn_sprite_affine_mats_manager.o
 .text._ZN2bn26sprite_affine_mats_manager6reloadEi
                0x00000000       0x28 bn_sprite_affine_mats_manager.o
 .text._ZN3_bn6assert9show_argsIJA46_ciA4_ciEEEvPKcS5_S5_iDpRKT_
                0x00000000       0x64 bn_sprite_affine_mats_manager.o
 .text._ZN2bn26sprite_affine_mats_manager22reserve_sprite_handlesEi
                0x00000000       0xb0 bn_sprite_affine_mats_manager.o
 .text._ZN2bn13ostringstream6appendILi12EEEvNS_7fixed_tIXT_EEE
                0x00000000       0xa0 bn_sprite_affine_mats_manager.o
 .text._ZN3_bn6assert9show_argsIA38_cN2bn7fixed_tILi12EEEEEvPKcS7_S7_iRKT_RKT0_
                0x00000000       0x54 bn_sprite_affine_mats_manager.o
 .rodata._ZN2bn26sprite_affine_mats_manager18set_rotation_angleEiNS_7fixed_tILi12EEE.str1.4
                0x00000000       0x76 bn_sprite_affine_mats_manager.o
 .text._ZN2bn26sprite_affine_mats_manager18set_rotation_angleEiNS_7fixed_tILi12EEE
                0x00000000      0x134 bn_sprite_affine_mats_manager.o
 .text._ZN2bn21sprite_affine_mat_ptr18set_rotation_angleENS_7fixed_tILi12EEE
                0x00000000       0x14 bn_sprite_affine_mats_manager.o
 .text._ZN2bn21sprite_affine_mat_ptr23set_rotation_angle_safeENS_7fixed_tILi12EEE
                0x00000000       0x38 bn_sprite_affine_mats_manager.o
 .text._ZN3_bn6assert9show_argsIA27_cN2bn7fixed_tILi12EEEEEvPKcS7_S7_iRKT_RKT0_
                0x00000000       0x54 bn_sprite_affine_mats_manager.o
 .rodata._ZN2bn26sprite_affine_mats_manager20set_horizontal_scaleEiNS_7fixed_tILi12EEE.str1.4
                0x00000000       0x67 bn_sprite_affine_mats_manager.o
 .text._ZN2bn26sprite_affine_mats_manager20set_horizontal_scaleEiNS_7fixed_tILi12EEE
                0x00000000      0x108 bn_sprite_affine_mats_manager.o
 .text._ZN2bn21sprite_affine_mat_ptr20set_horizontal_scaleENS_7fixed_tILi12EEE
                0x00000000      0x10c bn_sprite_affine_mats_manager.o
 .text._ZN3_bn6assert9show_argsIA25_cN2bn7fixed_tILi12EEEEEvPKcS7_S7_iRKT_RKT0_
                0x00000000       0x54 bn_sprite_affine_mats_manager.o
 .rodata._ZN2bn26sprite_affine_mats_manager18set_vertical_scaleEiNS_7fixed_tILi12EEE.str1.4
                0x00000000       0x41 bn_sprite_affine_mats_manager.o
 .text._ZN2bn26sprite_affine_mats_manager18set_vertical_scaleEiNS_7fixed_tILi12EEE
                0x00000000      0x108 bn_sprite_affine_mats_manager.o
 .text._ZN2bn21sprite_affine_mat_ptr18set_vertical_scaleENS_7fixed_tILi12EEE
                0x00000000       0x14 bn_sprite_affine_mats_manager.o
 .rodata._ZN2bn26sprite_affine_mats_manager9set_scaleEiNS_7fixed_tILi12EEES2_.str1.4
                0x00000000        0xa bn_sprite_affine_mats_manager.o
 .text._ZN2bn26sprite_affine_mats_manager9set_scaleEiNS_7fixed_tILi12EEES2_
                0x00000000      0x1d8 bn_sprite_affine_mats_manager.o
 .text._ZN2bn21sprite_affine_mat_ptr9set_scaleENS_7fixed_tILi12EEES2_
                0x00000000       0x14 bn_sprite_affine_mats_manager.o
 .text._ZN3_bn6assert9show_argsIA16_cN2bn7fixed_tILi12EEEEEvPKcS7_S7_iRKT_RKT0_
                0x00000000       0x54 bn_sprite_affine_mats_manager.o
 .rodata._ZN2bn26sprite_affine_mats_manager9set_scaleEiNS_7fixed_tILi12EEE.str1.4
                0x00000000       0x1c bn_sprite_affine_mats_manager.o
 .text._ZN2bn26sprite_affine_mats_manager9set_scaleEiNS_7fixed_tILi12EEE
                0x00000000      0x14c bn_sprite_affine_mats_manager.o
 .text._ZN2bn21sprite_affine_mat_ptr9set_scaleENS_7fixed_tILi12EEE
                0x00000000       0x14 bn_sprite_affine_mats_manager.o
 .text._ZN3_bn6assert9show_argsIA17_cEEvPKcS4_S4_iRKT_
                0x00000000       0x48 bn_sprite_affine_mats_manager.o
 .text._ZN2bn26sprite_affine_mats_manager12_GLOBAL__N_1L15_new_item_indexEv
                0x00000000       0xdc bn_sprite_affine_mats_manager.o
 .text._ZN2bn26sprite_affine_mats_manager15create_optionalEv
                0x00000000       0x94 bn_sprite_affine_mats_manager.o
 .text._ZN2bn21sprite_affine_mat_ptr15create_optionalEv
                0x00000000       0x20 bn_sprite_affine_mats_manager.o
 .text._ZN2bn26sprite_affine_mats_manager15create_optionalERKNS_21affine_mat_attributesE
                0x00000000       0xdc bn_sprite_affine_mats_manager.o
 .rodata._ZN2bn26sprite_affine_mats_manager6createERKNS_21affine_mat_attributesE.str1.4
                0x00000000       0x2d bn_sprite_affine_mats_manager.o
 .text._ZN2bn26sprite_affine_mats_manager6createERKNS_21affine_mat_attributesE
                0x00000000       0x34 bn_sprite_affine_mats_manager.o
 .text._ZN2bn21sprite_affine_mat_ptr15create_optionalERKNS_21affine_mat_attributesE
                0x00000000       0x24 bn_sprite_affine_mats_manager.o
 .text._ZN2bn21sprite_affine_mat_ptr6createERKNS_21affine_mat_attributesE
                0x00000000       0x40 bn_sprite_affine_mats_manager.o
 .text._ZN2bn26sprite_affine_mats_manager6createEv
                0x00000000       0xc0 bn_sprite_affine_mats_manager.o
 .text._ZN2bn21sprite_affine_mat_ptr6createEv
                0x00000000       0xcc bn_sprite_affine_mats_manager.o
 .text._ZN3_bn6assert9show_argsIA15_cEEvPKcS4_S4_iRKT_
                0x00000000       0x48 bn_sprite_affine_mats_manager.o
 .text._ZN2bn26sprite_affine_mats_manager15decrease_usagesEi
                0x00000000       0x28 bn_sprite_affine_mats_manager.o
 .text._ZN2bn21sprite_affine_mat_ptraSERKS0_
                0x00000000       0x54 bn_sprite_affine_mats_manager.o
 .text._ZN3_bn6assert9show_argsIA14_cEEvPKcS4_S4_iRKT_
                0x00000000       0x48 bn_sprite_affine_mats_manager.o
 .rodata        0x00000000       0x28 bn_sprite_affine_mats_manager.o
 .group         0x00000000        0xc bn_sprite_animate_actions.o
 .group         0x00000000        0xc bn_sprite_animate_actions.o
 .group         0x00000000        0xc bn_sprite_animate_actions.o
 .group         0x00000000        0xc bn_sprite_animate_actions.o
 .group         0x00000000        0xc bn_sprite_animate_actions.o
 .group         0x00000000        0xc bn_sprite_animate_actions.o
 .group         0x00000000        0xc bn_sprite_animate_actions.o
 .group         0x00000000        0xc bn_sprite_animate_actions.o
 .group         0x00000000        0xc bn_sprite_animate_actions.o
 .group         0x00000000        0xc bn_sprite_animate_actions.o
 .group         0x00000000        0xc bn_sprite_animate_actions.o
 .text          0x00000000        0x0 bn_sprite_animate_actions.o
 .data          0x00000000        0x0 bn_sprite_animate_actions.o
 .bss           0x00000000        0x0 bn_sprite_animate_actions.o
 .text._ZN2bn13ostringstream11append_argsIiJA4_ciEEEvRKT_DpRKT0_.isra.0
                0x00000000       0x24 bn_sprite_animate_actions.o
 .text._ZN2bn22isprite_animate_action9_set_refsERNS_10sprite_ptrERNS_17sprite_tiles_itemERNS_7ivectorItEE
                0x00000000        0x4 bn_sprite_animate_actions.o
 .text._ZN2bn22isprite_animate_action7_assignERKS0_
                0x00000000       0x10 bn_sprite_animate_actions.o
 .text._ZN2bn29isprite_cached_animate_action9_set_refsERNS_10sprite_ptrERNS_7ivectorINS_16sprite_tiles_ptrEEE
                0x00000000        0x4 bn_sprite_animate_actions.o
 .text._ZN2bn29isprite_cached_animate_action7_assignERKS0_
                0x00000000       0x10 bn_sprite_animate_actions.o
 .text._ZN3_bn6assert9show_argsIJA28_ciA4_ciEEEvPKcS5_S5_iDpRKT_
                0x00000000       0x58 bn_sprite_animate_actions.o
 .text._ZN3_bn6assert9show_argsIA15_cEEvPKcS4_S4_iRKT_
                0x00000000       0x48 bn_sprite_animate_actions.o
 .text._ZN3_bn6assert9show_argsIA23_ciEEvPKcS4_S4_iRKT_RKT0_
                0x00000000       0x54 bn_sprite_animate_actions.o
 .text._ZN3_bn6assert9show_argsIA24_ciEEvPKcS4_S4_iRKT_RKT0_
                0x00000000       0x54 bn_sprite_animate_actions.o
 .rodata._ZN2bn22isprite_animate_action16set_wait_updatesEi.str1.4
                0x00000000       0xb8 bn_sprite_animate_actions.o
 .text._ZN2bn22isprite_animate_action16set_wait_updatesEi
                0x00000000       0x68 bn_sprite_animate_actions.o
 .text._ZN2bn29isprite_cached_animate_action16set_wait_updatesEi
                0x00000000       0x68 bn_sprite_animate_actions.o
 .text._ZN3_bn6assert9show_argsIJA30_ciA4_ctEEEvPKcS5_S5_iDpRKT_
                0x00000000       0x64 bn_sprite_animate_actions.o
 .rodata._ZN2bn22isprite_animate_action23set_next_change_updatesEi.str1.4
                0x00000000       0x7e bn_sprite_animate_actions.o
 .text._ZN2bn22isprite_animate_action23set_next_change_updatesEi
                0x00000000       0x48 bn_sprite_animate_actions.o
 .text._ZN2bn29isprite_cached_animate_action23set_next_change_updatesEi
                0x00000000       0x48 bn_sprite_animate_actions.o
 .text._ZN3_bn6assert9show_argsIJA24_ciA4_ciEEEvPKcS5_S5_iDpRKT_
                0x00000000       0x58 bn_sprite_animate_actions.o
 .text._ZN3_bn6assert9show_argsIJA33_ciA4_ciEEEvPKcS5_S5_iDpRKT_
                0x00000000       0x58 bn_sprite_animate_actions.o
 .rodata._ZN2bn22isprite_animate_action24_assign_graphics_indexesERKNS_4spanIKtEE.str1.4
                0x00000000       0xc7 bn_sprite_animate_actions.o
 .text._ZN2bn22isprite_animate_action24_assign_graphics_indexesERKNS_4spanIKtEE
                0x00000000       0x94 bn_sprite_animate_actions.o
 .rodata._ZN2bn29isprite_cached_animate_action24_assign_graphics_indexesERKNS_17sprite_tiles_itemERKNS_4spanIKtEE.str1.4
                0x00000000       0x56 bn_sprite_animate_actions.o
 .text._ZN2bn29isprite_cached_animate_action24_assign_graphics_indexesERKNS_17sprite_tiles_itemERKNS_4spanIKtEE
                0x00000000       0xc4 bn_sprite_animate_actions.o
 .text._ZN3_bn6assert9show_argsIJA17_ciA4_ciEEEvPKcS5_S5_iDpRKT_
                0x00000000       0x58 bn_sprite_animate_actions.o
 .text._ZN3_bn6assert9show_argsIJA22_ciA4_ciEEEvPKcS5_S5_iDpRKT_
                0x00000000       0x58 bn_sprite_animate_actions.o
 .rodata._ZN2bn29isprite_cached_animate_action18_assign_tiles_listENS_4spanINS_16sprite_tiles_ptrEEE.str1.4
                0x00000000       0x76 bn_sprite_animate_actions.o
 .text._ZN2bn29isprite_cached_animate_action18_assign_tiles_listENS_4spanINS_16sprite_tiles_ptrEEE
                0x00000000       0xa4 bn_sprite_animate_actions.o
 .text._ZN3_bn6assert9show_argsIJA16_ciA4_ciEEEvPKcS5_S5_iDpRKT_
                0x00000000       0x58 bn_sprite_animate_actions.o
 .rodata._ZN2bn29isprite_cached_animate_action6updateEv.str1.4
                0x00000000       0x5c bn_sprite_animate_actions.o
 .text._ZN2bn29isprite_cached_animate_action6updateEv
                0x00000000       0xa4 bn_sprite_animate_actions.o
 .rodata._ZN2bn29isprite_cached_animate_action17set_current_indexEi.str1.4
                0x00000000       0x9b bn_sprite_animate_actions.o
 .text._ZN2bn29isprite_cached_animate_action17set_current_indexEi
                0x00000000       0xe8 bn_sprite_animate_actions.o
 .rodata._ZN2bn22isprite_animate_action17set_current_indexEi.str1.4
                0x00000000       0x78 bn_sprite_animate_actions.o
 .text._ZN2bn22isprite_animate_action17set_current_indexEi
                0x00000000       0xf0 bn_sprite_animate_actions.o
 .text._ZN2bn22isprite_animate_action6updateEv
                0x00000000       0xb8 bn_sprite_animate_actions.o
 .text._ZN3_bn6assert9show_argsIJA19_ciA4_ciEEEvPKcS5_S5_iDpRKT_
                0x00000000       0x58 bn_sprite_animate_actions.o
 .rodata._ZN2bn29isprite_cached_animate_actionaSERKS0_.str1.4
                0x00000000       0x87 bn_sprite_animate_actions.o
 .text._ZN2bn29isprite_cached_animate_actionaSERKS0_
                0x00000000       0xf8 bn_sprite_animate_actions.o
 .text._ZN2bn29isprite_cached_animate_actionaSEOS0_
                0x00000000      0x118 bn_sprite_animate_actions.o
 .rodata._ZN2bn22isprite_animate_actionaSEOS0_.str1.4
                0x00000000       0x60 bn_sprite_animate_actions.o
 .text._ZN2bn22isprite_animate_actionaSEOS0_
                0x00000000       0xc8 bn_sprite_animate_actions.o
 .text._ZN2bn29isprite_cached_animate_action18_assign_tiles_listERKNS_7ivectorINS_16sprite_tiles_ptrEEE
                0x00000000       0x90 bn_sprite_animate_actions.o
 .text._ZN2bn29isprite_cached_animate_action18_assign_tiles_listEONS_7ivectorINS_16sprite_tiles_ptrEEE
                0x00000000       0xa8 bn_sprite_animate_actions.o
 .text._ZN2bn22isprite_animate_action24_assign_graphics_indexesERKNS_7ivectorItEE
                0x00000000       0x70 bn_sprite_animate_actions.o
 .text._ZN2bn22isprite_animate_actionaSERKS0_
                0x00000000       0xc8 bn_sprite_animate_actions.o
 .debug_info    0x00000000     0xc96e bn_sprite_animate_actions.o
 .debug_abbrev  0x00000000      0xc9f bn_sprite_animate_actions.o
 .debug_loc     0x00000000     0x36ff bn_sprite_animate_actions.o
 .debug_aranges
                0x00000000      0x128 bn_sprite_animate_actions.o
 .debug_ranges  0x00000000      0x7f0 bn_sprite_animate_actions.o
 .debug_line    0x00000000     0x2360 bn_sprite_animate_actions.o
 .debug_str     0x00000000     0x8a8e bn_sprite_animate_actions.o
 .comment       0x00000000       0x19 bn_sprite_animate_actions.o
 .debug_frame   0x00000000      0x450 bn_sprite_animate_actions.o
 .group         0x00000000        0xc bn_sprite_text_generator.o
 .group         0x00000000        0xc bn_sprite_text_generator.o
 .group         0x00000000        0xc bn_sprite_text_generator.o
 .group         0x00000000        0xc bn_sprite_text_generator.o
 .group         0x00000000        0xc bn_sprite_text_generator.o
 .group         0x00000000        0xc bn_sprite_text_generator.o
 .group         0x00000000        0xc bn_sprite_text_generator.o
 .group         0x00000000        0xc bn_sprite_text_generator.o
 .group         0x00000000        0xc bn_sprite_text_generator.o
 .group         0x00000000        0xc bn_sprite_text_generator.o
 .group         0x00000000        0xc bn_sprite_text_generator.o
 .group         0x00000000        0xc bn_sprite_text_generator.o
 .group         0x00000000        0xc bn_sprite_text_generator.o
 .group         0x00000000        0xc bn_sprite_text_generator.o
 .group         0x00000000        0xc bn_sprite_text_generator.o
 .group         0x00000000        0xc bn_sprite_text_generator.o
 .text          0x00000000        0x0 bn_sprite_text_generator.o
 .data          0x00000000        0x0 bn_sprite_text_generator.o
 .bss           0x00000000        0x0 bn_sprite_text_generator.o
 .text._ZN2bn12_GLOBAL__N_1L22_fix_top_left_positionEiRNS_7ivectorINS_10sprite_ptrEEE.isra.0
                0x00000000       0x80 bn_sprite_text_generator.o
 .text._ZN2bn21sprite_text_generator14release_cameraEv
                0x00000000       0x30 bn_sprite_text_generator.o
 .text._ZN3_bn6assert9show_argsIA16_ciEEvPKcS4_S4_iRKT_RKT0_
                0x00000000       0x54 bn_sprite_text_generator.o
 .text._ZN3_bn6assert9show_argsIA15_ciEEvPKcS4_S4_iRKT_RKT0_
                0x00000000       0x54 bn_sprite_text_generator.o
 .text._ZN3_bn6assert9show_argsIA22_cEEvPKcS4_S4_iRKT_
                0x00000000       0x48 bn_sprite_text_generator.o
 .text._ZN3_bn6assert9show_argsIA24_cEEvPKcS4_S4_iRKT_
                0x00000000       0x48 bn_sprite_text_generator.o
 .text._ZN3_bn6assert9show_argsIA28_ciEEvPKcS4_S4_iRKT_RKT0_
                0x00000000       0x54 bn_sprite_text_generator.o
 .text._ZN3_bn6assert9show_argsIA25_cEEvPKcS4_S4_iRKT_
                0x00000000       0x48 bn_sprite_text_generator.o
 .text._ZN2bn21sprite_text_generator16set_palette_itemERKNS_19sprite_palette_itemE
                0x00000000       0x3c bn_sprite_text_generator.o
 .rodata._ZN2bn21sprite_text_generatorC2ERKNS_11sprite_fontERKNS_19sprite_palette_itemE.str1.4
                0x00000000       0x16 bn_sprite_text_generator.o
 .text._ZN2bn21sprite_text_generatorC2ERKNS_11sprite_fontERKNS_19sprite_palette_itemE
                0x00000000       0x64 bn_sprite_text_generator.o
 .text._ZN3_bn6assert9show_argsIA22_ciEEvPKcS4_S4_iRKT_RKT0_
                0x00000000       0x54 bn_sprite_text_generator.o
 .rodata._ZN2bn21sprite_text_generator15set_bg_priorityEi.str1.4
                0x00000000       0x66 bn_sprite_text_generator.o
 .text._ZN2bn21sprite_text_generator15set_bg_priorityEi
                0x00000000       0x3c bn_sprite_text_generator.o
 .text._ZN3_bn6assert9show_argsIA18_ciEEvPKcS4_S4_iRKT_RKT0_
                0x00000000       0x54 bn_sprite_text_generator.o
 .rodata._ZN2bn21sprite_text_generator11set_z_orderEi.str1.4
                0x00000000       0x66 bn_sprite_text_generator.o
 .text._ZN2bn21sprite_text_generator11set_z_orderEi
                0x00000000       0x4c bn_sprite_text_generator.o
 .text._ZN3_bn6assert9show_argsIA20_ciEEvPKcS4_S4_iRKT_RKT0_
                0x00000000       0x54 bn_sprite_text_generator.o
 .text._ZN3_bn6assert9show_argsIA39_ciEEvPKcS4_S4_iRKT_RKT0_
                0x00000000       0x54 bn_sprite_text_generator.o
 .text._ZN3_bn6assert9show_argsIA15_cEEvPKcS4_S4_iRKT_
                0x00000000       0x48 bn_sprite_text_generator.o
 .text._ZN2bn12_GLOBAL__N_1L22_build_sprite_optionalILNS_11sprite_sizeE1EEEPNS_4tileERKNS_21sprite_text_generatorERKNS_18sprite_palette_ptrERKNS_13fixed_point_tILi12EEERNS_7ivectorINS_10sprite_ptrEEE
                0x00000000      0x198 bn_sprite_text_generator.o
 .text._ZN2bn12_GLOBAL__N_1L22_build_sprite_optionalILNS_11sprite_sizeE2EEEPNS_4tileERKNS_21sprite_text_generatorERKNS_18sprite_palette_ptrERKNS_13fixed_point_tILi12EEERNS_7ivectorINS_10sprite_ptrEEE
                0x00000000      0x198 bn_sprite_text_generator.o
 .text._ZNK2bn21sprite_text_generator8generateERKNS_13fixed_point_tILi12EEERKNS_11string_viewERNS_7ivectorINS_10sprite_ptrEEE
                0x00000000       0x38 bn_sprite_text_generator.o
 .text._ZNK2bn21sprite_text_generator8generateERKNS_11string_viewERNS_7ivectorINS_10sprite_ptrEEE
                0x00000000       0x40 bn_sprite_text_generator.o
 .text._ZNK2bn21sprite_text_generator17generate_top_leftERKNS_13fixed_point_tILi12EEERKNS_11string_viewERNS_7ivectorINS_10sprite_ptrEEE
                0x00000000       0x44 bn_sprite_text_generator.o
 .rodata._ZN2bn12_GLOBAL__N_1L9_generateILb1EEEbRKNS_21sprite_text_generatorERKNS_13fixed_point_tILi12EEERKNS_11string_viewERKNS_23utf8_characters_map_refEiibRNS_7ivectorINS_10sprite_ptrEEE.str1.4
                0x00000000       0x35 bn_sprite_text_generator.o
 .text._ZN2bn12_GLOBAL__N_1L9_generateILb1EEEbRKNS_21sprite_text_generatorERKNS_13fixed_point_tILi12EEERKNS_11string_viewERKNS_23utf8_characters_map_refEiibRNS_7ivectorINS_10sprite_ptrEEE
                0x00000000     0x1414 bn_sprite_text_generator.o
 .text._ZNK2bn21sprite_text_generator17generate_optionalERKNS_11string_viewERNS_7ivectorINS_10sprite_ptrEEE
                0x00000000       0x40 bn_sprite_text_generator.o
 .text._ZNK2bn21sprite_text_generator17generate_optionalENS_7fixed_tILi12EEES2_RKNS_11string_viewERNS_7ivectorINS_10sprite_ptrEEE
                0x00000000       0x40 bn_sprite_text_generator.o
 .text._ZNK2bn21sprite_text_generator17generate_optionalERKNS_13fixed_point_tILi12EEERKNS_11string_viewERNS_7ivectorINS_10sprite_ptrEEE
                0x00000000       0x38 bn_sprite_text_generator.o
 .text._ZNK2bn21sprite_text_generator26generate_top_left_optionalERKNS_13fixed_point_tILi12EEERKNS_11string_viewERNS_7ivectorINS_10sprite_ptrEEE
                0x00000000       0x48 bn_sprite_text_generator.o
 .group         0x00000000        0xc bn_sprite_tiles_manager.o
 .group         0x00000000        0xc bn_sprite_tiles_manager.o
 .group         0x00000000        0xc bn_sprite_tiles_manager.o
 .group         0x00000000        0xc bn_sprite_tiles_manager.o
 .group         0x00000000        0xc bn_sprite_tiles_manager.o
 .group         0x00000000        0xc bn_sprite_tiles_manager.o
 .group         0x00000000        0xc bn_sprite_tiles_manager.o
 .group         0x00000000        0xc bn_sprite_tiles_manager.o
 .group         0x00000000        0xc bn_sprite_tiles_manager.o
 .group         0x00000000        0xc bn_sprite_tiles_manager.o
 .group         0x00000000        0xc bn_sprite_tiles_manager.o
 .group         0x00000000        0xc bn_sprite_tiles_manager.o
 .group         0x00000000        0xc bn_sprite_tiles_manager.o
 .group         0x00000000        0xc bn_sprite_tiles_manager.o
 .group         0x00000000        0xc bn_sprite_tiles_manager.o
 .group         0x00000000        0xc bn_sprite_tiles_manager.o
 .group         0x00000000        0xc bn_sprite_tiles_manager.o
 .group         0x00000000        0xc bn_sprite_tiles_manager.o
 .group         0x00000000        0xc bn_sprite_tiles_manager.o
 .group         0x00000000        0xc bn_sprite_tiles_manager.o
 .group         0x00000000        0xc bn_sprite_tiles_manager.o
 .group         0x00000000        0xc bn_sprite_tiles_manager.o
 .group         0x00000000        0xc bn_sprite_tiles_manager.o
 .text          0x00000000        0x0 bn_sprite_tiles_manager.o
 .data          0x00000000        0x0 bn_sprite_tiles_manager.o
 .bss           0x00000000        0x0 bn_sprite_tiles_manager.o
 .text._ZN2bn13ostringstream11append_argsIiJA4_ciEEEvRKT_DpRKT0_.isra.0
                0x00000000       0x24 bn_sprite_tiles_manager.o
 .text._ZN2bn12sprite_tiles16used_tiles_countEv
                0x00000000       0x18 bn_sprite_tiles_manager.o
 .text._ZN2bn12sprite_tiles21available_tiles_countEv
                0x00000000       0x10 bn_sprite_tiles_manager.o
 .text._ZN2bn12sprite_tiles16used_items_countEv
                0x00000000       0x14 bn_sprite_tiles_manager.o
 .text._ZN2bn12sprite_tiles21available_items_countEv
                0x00000000       0x10 bn_sprite_tiles_manager.o
 .text._ZN2bn16sprite_tiles_ptrC2ERKS0_
                0x00000000       0x18 bn_sprite_tiles_manager.o
 .text._ZNK2bn16sprite_tiles_ptr11compressionEv
                0x00000000       0x18 bn_sprite_tiles_manager.o
 .text._ZN2bn20sprite_tiles_manager16used_tiles_countEv
                0x00000000       0x18 bn_sprite_tiles_manager.o
 .text._ZN2bn20sprite_tiles_manager21available_tiles_countEv
                0x00000000       0x10 bn_sprite_tiles_manager.o
 .text._ZN2bn20sprite_tiles_manager16used_items_countEv
                0x00000000       0x14 bn_sprite_tiles_manager.o
 .text._ZN2bn20sprite_tiles_manager21available_items_countEv
                0x00000000       0x10 bn_sprite_tiles_manager.o
 .text._ZN2bn12sprite_tiles10log_statusEv
                0x00000000        0xc bn_sprite_tiles_manager.o
 .text._ZN2bn20sprite_tiles_manager15increase_usagesEi
                0x00000000       0x14 bn_sprite_tiles_manager.o
 .text._ZN2bn20sprite_tiles_manager10start_tileEi
                0x00000000       0x14 bn_sprite_tiles_manager.o
 .text._ZN2bn20sprite_tiles_manager11tiles_countEi
                0x00000000       0x14 bn_sprite_tiles_manager.o
 .text._ZN2bn20sprite_tiles_manager11compressionEi
                0x00000000       0x14 bn_sprite_tiles_manager.o
 .text._ZN3_bn6assert9show_argsIA25_ciEEvPKcS4_S4_iRKT_RKT0_
                0x00000000       0x54 bn_sprite_tiles_manager.o
 .text._ZN3_bn6assert9show_argsIA54_cEEvPKcS4_S4_iRKT_
                0x00000000       0x48 bn_sprite_tiles_manager.o
 .text._ZN3_bn6assert9show_argsIJA25_ciA4_ctEEEvPKcS5_S5_iDpRKT_
                0x00000000       0x64 bn_sprite_tiles_manager.o
 .text._ZN3_bn6assert9show_argsIJA58_ciA4_ciEEEvPKcS5_S5_iDpRKT_
                0x00000000       0x58 bn_sprite_tiles_manager.o
 .text._ZN3_bn6assert9show_argsIA19_cEEvPKcS4_S4_iRKT_
                0x00000000       0x48 bn_sprite_tiles_manager.o
 .text._ZN3_bn6assert9show_argsIA22_ciEEvPKcS4_S4_iRKT_RKT0_
                0x00000000       0x54 bn_sprite_tiles_manager.o
 .text._ZN3_bn6assert9show_argsIA27_ciEEvPKcS4_S4_iRKT_RKT0_
                0x00000000       0x54 bn_sprite_tiles_manager.o
 .text._ZN3_bn6assert9show_argsIA37_cEEvPKcS4_S4_iRKT_
                0x00000000       0x48 bn_sprite_tiles_manager.o
 .text._ZN3_bn6assert9show_argsIJA22_ciA4_ciEEEvPKcS5_S5_iDpRKT_
                0x00000000       0x58 bn_sprite_tiles_manager.o
 .text._ZN3_bn6assert9show_argsIJA41_cA34_cN2bn11string_viewEEEEvPKcS7_S7_iDpRKT_
                0x00000000       0x58 bn_sprite_tiles_manager.o
 .text._ZN3_bn6assert9show_argsIJA46_ciA4_ciEEEvPKcS5_S5_iDpRKT_
                0x00000000       0x58 bn_sprite_tiles_manager.o
 .text._ZN3_bn6assert9show_argsIA17_cEEvPKcS4_S4_iRKT_
                0x00000000       0x48 bn_sprite_tiles_manager.o
 .text._ZN3_bn6assert9show_argsIA53_cEEvPKcS4_S4_iRKT_
                0x00000000       0x48 bn_sprite_tiles_manager.o
 .text._ZN3_bn6assert9show_argsIA15_cEEvPKcS4_S4_iRKT_
                0x00000000       0x48 bn_sprite_tiles_manager.o
 .rodata._ZN2bn20sprite_tiles_manager16reload_tiles_refEi.str1.4
                0x00000000       0x25 bn_sprite_tiles_manager.o
 .text._ZN2bn20sprite_tiles_manager16reload_tiles_refEi
                0x00000000       0x48 bn_sprite_tiles_manager.o
 .text._ZN2bn16sprite_tiles_ptr16reload_tiles_refEv
                0x00000000       0x4c bn_sprite_tiles_manager.o
 .text._ZN3_bn6assert9show_argsIA16_cEEvPKcS4_S4_iRKT_
                0x00000000       0x48 bn_sprite_tiles_manager.o
 .text._ZN2bn16sprite_tiles_ptraSERKS0_
                0x00000000       0x3c bn_sprite_tiles_manager.o
 .text._ZN2bn20sprite_tiles_manager4findERKNS_4spanIKNS_4tileEEENS_16compression_typeE
                0x00000000       0x18 bn_sprite_tiles_manager.o
 .text._ZN2bn20sprite_tiles_manager19allocate_first_halfEb
                0x00000000      0x1dc bn_sprite_tiles_manager.o
 .text._ZN3_bn6assert9show_argsIA15_ciEEvPKcS4_S4_iRKT_RKT0_
                0x00000000       0x54 bn_sprite_tiles_manager.o
 .text._ZN3_bn6assert9show_argsIA39_ciEEvPKcS4_S4_iRKT_RKT0_
                0x00000000       0x54 bn_sprite_tiles_manager.o
 .text._ZN2bn16sprite_tiles_ptr4findERKNS_17sprite_tiles_itemE
                0x00000000       0x88 bn_sprite_tiles_manager.o
 .text._ZNK2bn17sprite_tiles_item10find_tilesEv
                0x00000000       0x10 bn_sprite_tiles_manager.o
 .text._ZNK2bn17sprite_tiles_item10find_tilesEi
                0x00000000       0xcc bn_sprite_tiles_manager.o
 .text._ZN2bn16sprite_tiles_ptr4findERKNS_17sprite_tiles_itemEi
                0x00000000       0xc8 bn_sprite_tiles_manager.o
 .rodata._ZNK2bn16sprite_tiles_ptr4vramEv.str1.4
                0x00000000       0x1b bn_sprite_tiles_manager.o
 .text._ZNK2bn16sprite_tiles_ptr4vramEv
                0x00000000       0x88 bn_sprite_tiles_manager.o
 .text._ZN2bn20sprite_tiles_manager9tiles_refEi
                0x00000000       0x2c bn_sprite_tiles_manager.o
 .text._ZNK2bn16sprite_tiles_ptr9tiles_refEv
                0x00000000       0x30 bn_sprite_tiles_manager.o
 .rodata._ZNK2bn17sprite_tiles_item10decompressENS_4spanINS_4tileEEE.str1.4
                0x00000000       0x96 bn_sprite_tiles_manager.o
 .text._ZNK2bn17sprite_tiles_item10decompressENS_4spanINS_4tileEEE
                0x00000000      0x140 bn_sprite_tiles_manager.o
 .text._ZN3_bn6assert9show_argsIA26_cEEvPKcS4_S4_iRKT_
                0x00000000       0x48 bn_sprite_tiles_manager.o
 .text._ZN2bn20sprite_tiles_manager17allocate_optionalEiNS_8bpp_modeE
                0x00000000       0x88 bn_sprite_tiles_manager.o
 .text._ZN2bn16sprite_tiles_ptr17allocate_optionalEiNS_8bpp_modeE
                0x00000000       0x24 bn_sprite_tiles_manager.o
 .rodata._ZN2bn20sprite_tiles_manager13set_tiles_refEiRKNS_4spanIKNS_4tileEEENS_16compression_typeE.str1.4
                0x00000000       0x45 bn_sprite_tiles_manager.o
 .text._ZN2bn20sprite_tiles_manager13set_tiles_refEiRKNS_4spanIKNS_4tileEEENS_16compression_typeE
                0x00000000      0x1c0 bn_sprite_tiles_manager.o
 .text._ZN2bn16sprite_tiles_ptr13set_tiles_refERKNS_17sprite_tiles_itemE
                0x00000000       0x7c bn_sprite_tiles_manager.o
 .text._ZN2bn16sprite_tiles_ptr13set_tiles_refERKNS_17sprite_tiles_itemEi
                0x00000000       0xc0 bn_sprite_tiles_manager.o
 .text._ZN2bn20sprite_tiles_manager15create_optionalERKNS_4spanIKNS_4tileEEENS_16compression_typeE
                0x00000000       0x38 bn_sprite_tiles_manager.o
 .text._ZN2bn16sprite_tiles_ptr15create_optionalERKNS_17sprite_tiles_itemE
                0x00000000       0x90 bn_sprite_tiles_manager.o
 .text._ZNK2bn17sprite_tiles_item21create_tiles_optionalEv
                0x00000000       0x10 bn_sprite_tiles_manager.o
 .text._ZNK2bn17sprite_tiles_item25create_new_tiles_optionalEv
                0x00000000       0x10 bn_sprite_tiles_manager.o
 .text._ZN2bn16sprite_tiles_ptr15create_optionalERKNS_17sprite_tiles_itemEi
                0x00000000       0xcc bn_sprite_tiles_manager.o
 .text._ZNK2bn17sprite_tiles_item21create_tiles_optionalEi
                0x00000000       0xcc bn_sprite_tiles_manager.o
 .text._ZNK2bn17sprite_tiles_item25create_new_tiles_optionalEi
                0x00000000       0xcc bn_sprite_tiles_manager.o
 .text._ZNK2bn17sprite_tiles_item12create_tilesEv
                0x00000000       0x10 bn_sprite_tiles_manager.o
 .text._ZNK2bn17sprite_tiles_item16create_new_tilesEv
                0x00000000       0x10 bn_sprite_tiles_manager.o
 .text._ZNK2bn17sprite_tiles_item12create_tilesEi
                0x00000000       0xc0 bn_sprite_tiles_manager.o
 .text._ZNK2bn17sprite_tiles_item16create_new_tilesEi
                0x00000000       0xc0 bn_sprite_tiles_manager.o
 .text          0x00000000        0x0 bn_sprites_manager.bn_iwram.o
 .data          0x00000000        0x0 bn_sprites_manager.bn_iwram.o
 .bss           0x00000000        0x0 bn_sprites_manager.bn_iwram.o
 .group         0x00000000        0xc bn_sprites_manager.o
 .group         0x00000000        0xc bn_sprites_manager.o
 .group         0x00000000        0xc bn_sprites_manager.o
 .group         0x00000000        0xc bn_sprites_manager.o
 .group         0x00000000        0xc bn_sprites_manager.o
 .group         0x00000000        0xc bn_sprites_manager.o
 .group         0x00000000        0xc bn_sprites_manager.o
 .group         0x00000000        0xc bn_sprites_manager.o
 .group         0x00000000        0xc bn_sprites_manager.o
 .group         0x00000000        0xc bn_sprites_manager.o
 .group         0x00000000        0xc bn_sprites_manager.o
 .group         0x00000000        0xc bn_sprites_manager.o
 .group         0x00000000        0xc bn_sprites_manager.o
 .group         0x00000000        0xc bn_sprites_manager.o
 .group         0x00000000        0xc bn_sprites_manager.o
 .group         0x00000000        0xc bn_sprites_manager.o
 .group         0x00000000        0xc bn_sprites_manager.o
 .group         0x00000000        0xc bn_sprites_manager.o
 .group         0x00000000        0xc bn_sprites_manager.o
 .group         0x00000000        0xc bn_sprites_manager.o
 .group         0x00000000        0xc bn_sprites_manager.o
 .group         0x00000000        0xc bn_sprites_manager.o
 .group         0x00000000        0xc bn_sprites_manager.o
 .group         0x00000000        0xc bn_sprites_manager.o
 .group         0x00000000        0xc bn_sprites_manager.o
 .group         0x00000000        0xc bn_sprites_manager.o
 .group         0x00000000        0xc bn_sprites_manager.o
 .group         0x00000000        0xc bn_sprites_manager.o
 .group         0x00000000        0xc bn_sprites_manager.o
 .group         0x00000000        0xc bn_sprites_manager.o
 .group         0x00000000        0xc bn_sprites_manager.o
 .text          0x00000000        0x0 bn_sprites_manager.o
 .data          0x00000000        0x0 bn_sprites_manager.o
 .bss           0x00000000        0x0 bn_sprites_manager.o
 .text._ZN2bn15sprites_manager12_GLOBAL__N_1L23_update_item_shape_sizeERKNS_17sprite_shape_sizeERNS_20sprites_manager_itemE
                0x00000000       0x80 bn_sprites_manager.o
 .text._ZN2bn7sprites16used_items_countEv
                0x00000000        0xc bn_sprites_manager.o
 .text._ZN2bn7sprites21available_items_countEv
                0x00000000       0x10 bn_sprites_manager.o
 .text._ZN2bn7sprites7visibleEv
                0x00000000        0xc bn_sprites_manager.o
 .text._ZN2bn7sprites11set_visibleEb
                0x00000000        0xc bn_sprites_manager.o
 .text._ZN2bn7sprites18bg_sorting_enabledEv
                0x00000000       0x14 bn_sprites_manager.o
 .text._ZN2bn7sprites23blending_bottom_enabledEv
                0x00000000        0xc bn_sprites_manager.o
 .text._ZN2bn7sprites27set_blending_bottom_enabledEb
                0x00000000        0xc bn_sprites_manager.o
 .text._ZN2bn7sprites22reserved_handles_countEv
                0x00000000       0x10 bn_sprites_manager.o
 .text._ZN2bn7sprites6reloadEv
                0x00000000       0x24 bn_sprites_manager.o
 .text._ZN2bn10sprite_ptrC2ERKS0_
                0x00000000        0xc bn_sprites_manager.o
 .text._ZNK2bn10sprite_ptr10shape_sizeEv
                0x00000000       0x14 bn_sprites_manager.o
 .text._ZN2bn10sprite_ptr5set_xENS_7fixed_tILi12EEE
                0x00000000       0x48 bn_sprites_manager.o
 .text._ZN2bn10sprite_ptr5set_yENS_7fixed_tILi12EEE
                0x00000000       0x48 bn_sprites_manager.o
 .text._ZNK2bn10sprite_ptr8positionEv
                0x00000000        0x8 bn_sprites_manager.o
 .text._ZN2bn10sprite_ptr12set_positionERKNS_13fixed_point_tILi12EEE
                0x00000000       0x80 bn_sprites_manager.o
 .text._ZNK2bn10sprite_ptr14rotation_angleEv
                0x00000000       0x1c bn_sprites_manager.o
 .text._ZNK2bn10sprite_ptr16horizontal_scaleEv
                0x00000000       0x1c bn_sprites_manager.o
 .text._ZNK2bn10sprite_ptr14vertical_scaleEv
                0x00000000       0x1c bn_sprites_manager.o
 .text._ZNK2bn10sprite_ptr16horizontal_shearEv
                0x00000000       0x1c bn_sprites_manager.o
 .text._ZNK2bn10sprite_ptr14vertical_shearEv
                0x00000000       0x1c bn_sprites_manager.o
 .text._ZNK2bn10sprite_ptr11bg_priorityEv
                0x00000000        0x8 bn_sprites_manager.o
 .text._ZNK2bn10sprite_ptr7z_orderEv
                0x00000000       0x10 bn_sprites_manager.o
 .text._ZNK2bn10sprite_ptr15horizontal_flipEv
                0x00000000       0x20 bn_sprites_manager.o
 .text._ZN2bn10sprite_ptr19set_horizontal_flipEb
                0x00000000       0x54 bn_sprites_manager.o
 .text._ZNK2bn10sprite_ptr13vertical_flipEv
                0x00000000       0x20 bn_sprites_manager.o
 .text._ZN2bn10sprite_ptr17set_vertical_flipEb
                0x00000000       0x54 bn_sprites_manager.o
 .text._ZNK2bn10sprite_ptr14mosaic_enabledEv
                0x00000000        0xc bn_sprites_manager.o
 .text._ZN2bn10sprite_ptr18set_mosaic_enabledEb
                0x00000000       0x40 bn_sprites_manager.o
 .text._ZNK2bn10sprite_ptr16blending_enabledEv
                0x00000000        0xc bn_sprites_manager.o
 .text._ZNK2bn10sprite_ptr14window_enabledEv
                0x00000000        0xc bn_sprites_manager.o
 .text._ZNK2bn10sprite_ptr11double_sizeEv
                0x00000000        0xc bn_sprites_manager.o
 .text._ZNK2bn10sprite_ptr16double_size_modeEv
                0x00000000        0xc bn_sprites_manager.o
 .text._ZNK2bn10sprite_ptr7visibleEv
                0x00000000        0xc bn_sprites_manager.o
 .text._ZN2bn10sprite_ptr11set_visibleEb
                0x00000000       0x6c bn_sprites_manager.o
 .text._ZNK2bn10sprite_ptr6cameraEv
                0x00000000        0x8 bn_sprites_manager.o
 .text._ZN2bn10sprite_ptr13remove_cameraEv
                0x00000000       0x7c bn_sprites_manager.o
 .text._ZNK2bn10sprite_ptr10affine_matEv
                0x00000000        0x8 bn_sprites_manager.o
 .text._ZNK2bn10sprite_ptr33remove_affine_mat_when_not_neededEv
                0x00000000        0xc bn_sprites_manager.o
 .text._ZN2bn10sprite_ptr37set_remove_affine_mat_when_not_neededEb
                0x00000000       0x1c bn_sprites_manager.o
 .text._ZNK2bn11sprite_item10decompressENS_4spanINS_4tileEEENS1_INS_5colorEEE
                0x00000000       0x4c bn_sprites_manager.o
 .text._ZN2bn14sprite_builderC2ERKNS_11sprite_itemE
                0x00000000       0x6c bn_sprites_manager.o
 .text._ZNK2bn14sprite_builder14rotation_angleEv
                0x00000000       0x18 bn_sprites_manager.o
 .text._ZNK2bn14sprite_builder16horizontal_scaleEv
                0x00000000       0x1c bn_sprites_manager.o
 .text._ZNK2bn14sprite_builder14vertical_scaleEv
                0x00000000       0x1c bn_sprites_manager.o
 .text._ZNK2bn14sprite_builder16horizontal_shearEv
                0x00000000       0x18 bn_sprites_manager.o
 .text._ZN2bn14sprite_builder20set_horizontal_shearENS_7fixed_tILi12EEE
                0x00000000       0xa8 bn_sprites_manager.o
 .text._ZNK2bn14sprite_builder14vertical_shearEv
                0x00000000       0x18 bn_sprites_manager.o
 .text._ZN2bn14sprite_builder18set_vertical_shearENS_7fixed_tILi12EEE
                0x00000000       0xa8 bn_sprites_manager.o
 .text._ZN2bn14sprite_builder9set_shearENS_7fixed_tILi12EEE
                0x00000000       0xa8 bn_sprites_manager.o
 .text._ZN2bn14sprite_builder9set_shearENS_7fixed_tILi12EEES2_
                0x00000000       0xc0 bn_sprites_manager.o
 .text._ZNK2bn14sprite_builder15horizontal_flipEv
                0x00000000       0x20 bn_sprites_manager.o
 .text._ZN2bn14sprite_builder19set_horizontal_flipEb
                0x00000000       0x1c bn_sprites_manager.o
 .text._ZNK2bn14sprite_builder13vertical_flipEv
                0x00000000       0x20 bn_sprites_manager.o
 .text._ZN2bn14sprite_builder17set_vertical_flipEb
                0x00000000       0x1c bn_sprites_manager.o
 .text._ZN2bn14sprite_builder14release_cameraEv
                0x00000000       0x30 bn_sprites_manager.o
 .text._ZNK2bn14sprite_builder14tiles_optionalEv
                0x00000000       0x80 bn_sprites_manager.o
 .text._ZNK2bn14sprite_builder16palette_optionalEv
                0x00000000       0x80 bn_sprites_manager.o
 .text._ZN2bn14sprite_builder22release_tiles_optionalEv
                0x00000000       0xa0 bn_sprites_manager.o
 .text._ZN2bn14sprite_builder24release_palette_optionalEv
                0x00000000       0x98 bn_sprites_manager.o
 .text._ZN2bn14sprite_builder14set_affine_matERKNS_21sprite_affine_mat_ptrE
                0x00000000       0x2c bn_sprites_manager.o
 .text._ZN2bn14sprite_builder14set_affine_matEONS_21sprite_affine_mat_ptrE
                0x00000000       0x38 bn_sprites_manager.o
 .text._ZN2bn14sprite_builder14set_affine_matERKNS_8optionalINS_21sprite_affine_mat_ptrEEE
                0x00000000       0x40 bn_sprites_manager.o
 .text._ZN2bn14sprite_builder14set_affine_matEONS_8optionalINS_21sprite_affine_mat_ptrEEE
                0x00000000       0x48 bn_sprites_manager.o
 .text._ZN2bn14sprite_builder18release_affine_matEv
                0x00000000       0x30 bn_sprites_manager.o
 .text._ZN2bn31sprite_affine_second_attributesC2ENS_7fixed_tILi12EEERKNS_21sprite_affine_mat_ptrE
                0x00000000       0x14 bn_sprites_manager.o
 .text._ZN2bn31sprite_affine_second_attributesC2ENS_7fixed_tILi12EEEONS_21sprite_affine_mat_ptrE
                0x00000000       0x10 bn_sprites_manager.o
 .text._ZN2bn15sprites_manager16used_items_countEv
                0x00000000        0xc bn_sprites_manager.o
 .text._ZN2bn15sprites_manager21available_items_countEv
                0x00000000       0x10 bn_sprites_manager.o
 .text._ZN2bn15sprites_manager15increase_usagesEPv
                0x00000000        0x8 bn_sprites_manager.o
 .text._ZN2bn15sprites_manager12remove_tilesEPv
                0x00000000       0x1c bn_sprites_manager.o
 .text._ZN2bn15sprites_manager14remove_paletteEPv
                0x00000000       0x1c bn_sprites_manager.o
 .text._ZN2bn15sprites_manager8positionEPv
                0x00000000        0x4 bn_sprites_manager.o
 .text._ZN2bn15sprites_manager5set_xEPvNS_7fixed_tILi12EEE
                0x00000000       0x48 bn_sprites_manager.o
 .text._ZN2bn15sprites_manager5set_yEPvNS_7fixed_tILi12EEE
                0x00000000       0x44 bn_sprites_manager.o
 .text._ZN2bn15sprites_manager12set_positionEPvRKNS_13fixed_point_tILi12EEE
                0x00000000       0x7c bn_sprites_manager.o
 .text._ZN2bn15sprites_manager11bg_priorityEPv
                0x00000000        0x4 bn_sprites_manager.o
 .text._ZN2bn15sprites_manager7z_orderEPv
                0x00000000        0xc bn_sprites_manager.o
 .text._ZN2bn15sprites_manager15horizontal_flipEPv
                0x00000000       0x20 bn_sprites_manager.o
 .text._ZN2bn15sprites_manager19set_horizontal_flipEPvb
                0x00000000       0x50 bn_sprites_manager.o
 .text._ZN2bn15sprites_manager13vertical_flipEPv
                0x00000000       0x20 bn_sprites_manager.o
 .text._ZN2bn15sprites_manager17set_vertical_flipEPvb
                0x00000000       0x50 bn_sprites_manager.o
 .text._ZN2bn15sprites_manager14mosaic_enabledEPv
                0x00000000        0x8 bn_sprites_manager.o
 .text._ZN2bn15sprites_manager18set_mosaic_enabledEPvb
                0x00000000       0x40 bn_sprites_manager.o
 .text._ZN2bn15sprites_manager16blending_enabledEPv
                0x00000000        0xc bn_sprites_manager.o
 .text._ZN2bn15sprites_manager14window_enabledEPv
                0x00000000        0x8 bn_sprites_manager.o
 .text._ZN2bn15sprites_manager11double_sizeEPv
                0x00000000        0xc bn_sprites_manager.o
 .text._ZN2bn15sprites_manager16double_size_modeEPv
                0x00000000        0xc bn_sprites_manager.o
 .text._ZN2bn15sprites_manager7visibleEPv
                0x00000000        0xc bn_sprites_manager.o
 .text._ZN2bn15sprites_manager11set_visibleEPvb
                0x00000000       0x68 bn_sprites_manager.o
 .text._ZN2bn15sprites_manager6cameraEPv
                0x00000000        0x4 bn_sprites_manager.o
 .text._ZN2bn15sprites_manager10set_cameraEPvONS_10camera_ptrE
                0x00000000       0xa4 bn_sprites_manager.o
 .text._ZN2bn10sprite_ptr10set_cameraERKNS_10camera_ptrE
                0x00000000       0x24 bn_sprites_manager.o
 .text._ZN2bn10sprite_ptr10set_cameraEONS_10camera_ptrE
                0x00000000       0x10 bn_sprites_manager.o
 .text._ZN2bn10sprite_ptr10set_cameraERKNS_8optionalINS_10camera_ptrEEE
                0x00000000       0xa0 bn_sprites_manager.o
 .text._ZN2bn10sprite_ptr10set_cameraEONS_8optionalINS_10camera_ptrEEE
                0x00000000       0x90 bn_sprites_manager.o
 .text._ZN2bn15sprites_manager13remove_cameraEPv
                0x00000000       0x7c bn_sprites_manager.o
 .text._ZN2bn15sprites_manager33remove_affine_mat_when_not_neededEPv
                0x00000000        0xc bn_sprites_manager.o
 .text._ZN2bn15sprites_manager37set_remove_affine_mat_when_not_neededEPvb
                0x00000000       0x1c bn_sprites_manager.o
 .text._ZN2bn15sprites_manager18bg_sorting_enabledEv
                0x00000000       0x14 bn_sprites_manager.o
 .text._ZN2bn15sprites_manager22reserved_handles_countEv
                0x00000000       0x10 bn_sprites_manager.o
 .text._ZN2bn15sprites_manager6reloadEPv
                0x00000000       0x5c bn_sprites_manager.o
 .text._ZN2bn15sprites_manager15reload_blendingEv
                0x00000000       0xc4 bn_sprites_manager.o
 .text._ZN2bn15sprites_manager10reload_allEv
                0x00000000       0x24 bn_sprites_manager.o
 .text._ZN3_bn6assert9show_argsIA54_cEEvPKcS4_S4_iRKT_
                0x00000000       0x48 bn_sprites_manager.o
 .rodata._ZN2bn14sprite_builder18set_window_enabledEb.str1.4
                0x00000000       0x13 bn_sprites_manager.o
 .text._ZN2bn14sprite_builder18set_window_enabledEb
                0x00000000       0x3c bn_sprites_manager.o
 .text._ZN2bn15sprites_manager20set_blending_enabledEPvb
                0x00000000       0x98 bn_sprites_manager.o
 .text._ZN2bn15sprites_manager18set_window_enabledEPvb
                0x00000000       0x6c bn_sprites_manager.o
 .text._ZN2bn15sprites_manager20set_first_attributesEPvRKNS_23sprite_first_attributesE
                0x00000000       0xe8 bn_sprites_manager.o
 .text._ZN2bn10sprite_ptr20set_first_attributesERKNS_23sprite_first_attributesE
                0x00000000       0x10 bn_sprites_manager.o
 .rodata._ZN2bn15sprites_manager16first_attributesEPv.str1.4
                0x00000000       0x35 bn_sprites_manager.o
 .text._ZN2bn15sprites_manager16first_attributesEPv
                0x00000000       0x60 bn_sprites_manager.o
 .text._ZNK2bn10sprite_ptr16first_attributesEv
                0x00000000       0x64 bn_sprites_manager.o
 .text._ZN2bn10sprite_ptr18set_window_enabledEb
                0x00000000       0x70 bn_sprites_manager.o
 .text._ZN2bn10sprite_ptr20set_blending_enabledEb
                0x00000000       0x98 bn_sprites_manager.o
 .text._ZN3_bn6assert9show_argsIA16_ciEEvPKcS4_S4_iRKT_RKT0_
                0x00000000       0x54 bn_sprites_manager.o
 .text._ZN3_bn6assert9show_argsIA17_ciEEvPKcS4_S4_iRKT_RKT0_
                0x00000000       0x54 bn_sprites_manager.o
 .rodata._ZNK2bn10sprite_ptr10dimensionsEv.str1.4
                0x00000000       0x4d bn_sprites_manager.o
 .text._ZNK2bn10sprite_ptr10dimensionsEv
                0x00000000       0x68 bn_sprites_manager.o
 .text._ZN2bn10sprite_ptr21set_top_left_positionENS_7fixed_tILi12EEES2_
                0x00000000       0xa4 bn_sprites_manager.o
 .text._ZN2bn10sprite_ptr21set_top_left_positionERKNS_13fixed_point_tILi12EEE
                0x00000000       0xa4 bn_sprites_manager.o
 .text._ZN2bn15sprites_manager10dimensionsEPv
                0x00000000       0x68 bn_sprites_manager.o
 .text._ZNK2bn10sprite_ptr10top_left_xEv
                0x00000000       0x70 bn_sprites_manager.o
 .text._ZNK2bn10sprite_ptr10top_left_yEv
                0x00000000       0x70 bn_sprites_manager.o
 .text._ZN2bn10sprite_ptr14set_top_left_xENS_7fixed_tILi12EEE
                0x00000000       0xb0 bn_sprites_manager.o
 .text._ZNK2bn10sprite_ptr17top_left_positionEv
                0x00000000       0x80 bn_sprites_manager.o
 .text._ZN2bn10sprite_ptr14set_top_left_yENS_7fixed_tILi12EEE
                0x00000000       0xb0 bn_sprites_manager.o
 .text._ZN3_bn6assert9show_argsIA15_ciEEvPKcS4_S4_iRKT_RKT0_
                0x00000000       0x54 bn_sprites_manager.o
 .text._ZNK2bn14sprite_builder10top_left_xEv
                0x00000000       0xec bn_sprites_manager.o
 .text._ZNK2bn14sprite_builder10top_left_yEv
                0x00000000       0xf0 bn_sprites_manager.o
 .text._ZN2bn14sprite_builder14set_top_left_xENS_7fixed_tILi12EEE
                0x00000000       0xec bn_sprites_manager.o
 .text._ZN2bn14sprite_builder14set_top_left_yENS_7fixed_tILi12EEE
                0x00000000       0xf0 bn_sprites_manager.o
 .text._ZNK2bn14sprite_builder17top_left_positionEv
                0x00000000      0x13c bn_sprites_manager.o
 .text._ZN2bn14sprite_builder21set_top_left_positionENS_7fixed_tILi12EEES2_
                0x00000000      0x154 bn_sprites_manager.o
 .text._ZN2bn14sprite_builder21set_top_left_positionERKNS_13fixed_point_tILi12EEE
                0x00000000      0x154 bn_sprites_manager.o
 .text._ZN3_bn6assert9show_argsIA22_cEEvPKcS4_S4_iRKT_
                0x00000000       0x48 bn_sprites_manager.o
 .text._ZN2bn15sprites_manager17remove_affine_matEPv
                0x00000000       0x18 bn_sprites_manager.o
 .text._ZN2bn10sprite_ptr17remove_affine_matEv
                0x00000000       0x1c bn_sprites_manager.o
 .text._ZN2bn15sprites_manager5tilesEPv
                0x00000000       0x34 bn_sprites_manager.o
 .text._ZNK2bn10sprite_ptr5tilesEv
                0x00000000       0x38 bn_sprites_manager.o
 .text._ZNK2bn10sprite_ptr7paletteEv
                0x00000000       0x38 bn_sprites_manager.o
 .text._ZNK2bn14sprite_builder7paletteEv
                0x00000000       0x4c bn_sprites_manager.o
 .text._ZNK2bn14sprite_builder5tilesEv
                0x00000000       0x4c bn_sprites_manager.o
 .text._ZN3_bn6assert9show_argsIA27_chEEvPKcS4_S4_iRKT_RKT0_
                0x00000000       0x54 bn_sprites_manager.o
 .text._ZNK2bn20sprites_manager_item15new_double_sizeEi.part.0
                0x00000000       0x30 bn_sprites_manager.o
 .text._ZN2bn15sprites_manager20set_double_size_modeEPvNS_23sprite_double_size_modeE
                0x00000000       0x94 bn_sprites_manager.o
 .text._ZN2bn15sprites_manager12_GLOBAL__N_1L18_assign_affine_matEbRNS_20sprites_manager_itemEONS_21sprite_affine_mat_ptrE
                0x00000000      0x118 bn_sprites_manager.o
 .text._ZN2bn15sprites_manager18set_new_affine_matEPvRNS_21affine_mat_attributesE
                0x00000000       0x84 bn_sprites_manager.o
 .text._ZN2bn10sprite_ptr20set_horizontal_shearENS_7fixed_tILi12EEE
                0x00000000       0x4c bn_sprites_manager.o
 .text._ZN2bn10sprite_ptr18set_vertical_shearENS_7fixed_tILi12EEE
                0x00000000       0x4c bn_sprites_manager.o
 .text._ZN2bn10sprite_ptr9set_shearENS_7fixed_tILi12EEE
                0x00000000       0x50 bn_sprites_manager.o
 .text._ZN2bn10sprite_ptr9set_shearENS_7fixed_tILi12EEES2_
                0x00000000       0x54 bn_sprites_manager.o
 .text._ZN2bn15sprites_manager14set_affine_matEPvRKNS_21sprite_affine_mat_ptrE
                0x00000000       0x3c bn_sprites_manager.o
 .text._ZN2bn15sprites_manager14set_affine_matEPvONS_21sprite_affine_mat_ptrE
                0x00000000       0x2c bn_sprites_manager.o
 .text._ZN2bn10sprite_ptr14set_affine_matEONS_21sprite_affine_mat_ptrE
                0x00000000       0x2c bn_sprites_manager.o
 .text._ZN2bn10sprite_ptr14set_affine_matEONS_8optionalINS_21sprite_affine_mat_ptrEEE
                0x00000000       0x3c bn_sprites_manager.o
 .text._ZN2bn10sprite_ptr14set_affine_matERKNS_21sprite_affine_mat_ptrE
                0x00000000       0x3c bn_sprites_manager.o
 .text._ZN2bn10sprite_ptr14set_affine_matERKNS_8optionalINS_21sprite_affine_mat_ptrEEE
                0x00000000       0x50 bn_sprites_manager.o
 .text._ZN2bn10sprite_ptr20set_double_size_modeENS_23sprite_double_size_modeE
                0x00000000       0x94 bn_sprites_manager.o
 .text._ZN3_bn6assert9show_argsIA25_cEEvPKcS4_S4_iRKT_
                0x00000000       0x48 bn_sprites_manager.o
 .text._ZN2bn15sprites_manager22set_bg_sorting_enabledEb
                0x00000000       0x48 bn_sprites_manager.o
 .text._ZN2bn7sprites22set_bg_sorting_enabledEb
                0x00000000       0x48 bn_sprites_manager.o
 .text._ZN3_bn6assert9show_argsIA37_cEEvPKcS4_S4_iRKT_
                0x00000000       0x48 bn_sprites_manager.o
 .text._ZN3_bn6assert9show_argsIA18_ciEEvPKcS4_S4_iRKT_RKT0_
                0x00000000       0x54 bn_sprites_manager.o
 .text._ZN3_bn6assert9show_argsIJA22_ciA4_ciEEEvPKcS5_S5_iDpRKT_
                0x00000000       0x58 bn_sprites_manager.o
 .rodata._ZN2bn15sprites_manager9set_tilesEPvRKNS_16sprite_tiles_ptrE.str1.4
                0x00000000       0x65 bn_sprites_manager.o
 .text._ZN2bn15sprites_manager9set_tilesEPvRKNS_16sprite_tiles_ptrE
                0x00000000      0x240 bn_sprites_manager.o
 .text._ZN2bn10sprite_ptr9set_tilesERKNS_16sprite_tiles_ptrE
                0x00000000       0x10 bn_sprites_manager.o
 .text._ZN2bn15sprites_manager9set_tilesEPvONS_16sprite_tiles_ptrE
                0x00000000      0x24c bn_sprites_manager.o
 .text._ZN2bn10sprite_ptr9set_tilesEONS_16sprite_tiles_ptrE
                0x00000000       0x10 bn_sprites_manager.o
 .text._ZN2bn10sprite_ptr9set_tilesERKNS_17sprite_tiles_itemE
                0x00000000       0x74 bn_sprites_manager.o
 .text._ZN2bn10sprite_ptr9set_tilesERKNS_17sprite_tiles_itemEi
                0x00000000       0x7c bn_sprites_manager.o
 .text._ZN3_bn6assert9show_argsIJA25_ciA4_ciEEEvPKcS5_S5_iDpRKT_
                0x00000000       0x58 bn_sprites_manager.o
 .rodata._ZN2bn14sprite_builderC2ERKNS_11sprite_itemEi.str1.4
                0x00000000       0x65 bn_sprites_manager.o
 .text._ZN2bn14sprite_builderC2ERKNS_11sprite_itemEi
                0x00000000       0xb4 bn_sprites_manager.o
 .text._ZN3_bn6assert9show_argsIA22_ciEEvPKcS4_S4_iRKT_RKT0_
                0x00000000       0x54 bn_sprites_manager.o
 .rodata._ZN2bn23sprite_third_attributesC2ENS_16sprite_tiles_ptrENS_18sprite_palette_ptrEi.str1.4
                0x00000000       0x39 bn_sprites_manager.o
 .text._ZN2bn23sprite_third_attributesC2ENS_16sprite_tiles_ptrENS_18sprite_palette_ptrEi
                0x00000000       0x50 bn_sprites_manager.o
 .text._ZN2bn23sprite_third_attributes15set_bg_priorityEi
                0x00000000       0x38 bn_sprites_manager.o
 .text._ZN2bn15sprites_manager16third_attributesEPv
                0x00000000       0xa4 bn_sprites_manager.o
 .text._ZNK2bn10sprite_ptr16third_attributesEv
                0x00000000       0x14 bn_sprites_manager.o
 .text._ZN3_bn6assert9show_argsIA27_cEEvPKcS4_S4_iRKT_
                0x00000000       0x48 bn_sprites_manager.o
 .text._ZN3_bn6assert9show_argsIA31_cEEvPKcS4_S4_iRKT_
                0x00000000       0x48 bn_sprites_manager.o
 .text._ZN3_bn6assert9show_argsIJA30_ciA4_ciEEEvPKcS5_S5_iDpRKT_
                0x00000000       0x58 bn_sprites_manager.o
 .rodata._ZN2bn15sprites_manager9set_tilesEPvRKNS_17sprite_shape_sizeERKNS_16sprite_tiles_ptrE.str1.4
                0x00000000       0x62 bn_sprites_manager.o
 .text._ZN2bn15sprites_manager9set_tilesEPvRKNS_17sprite_shape_sizeERKNS_16sprite_tiles_ptrE
                0x00000000      0x328 bn_sprites_manager.o
 .text._ZN2bn10sprite_ptr9set_tilesERKNS_17sprite_shape_sizeERKNS_16sprite_tiles_ptrE
                0x00000000       0x10 bn_sprites_manager.o
 .text._ZN2bn15sprites_manager9set_tilesEPvRKNS_17sprite_shape_sizeEONS_16sprite_tiles_ptrE
                0x00000000      0x330 bn_sprites_manager.o
 .text._ZN2bn10sprite_ptr9set_tilesERKNS_17sprite_shape_sizeEONS_16sprite_tiles_ptrE
                0x00000000       0x10 bn_sprites_manager.o
 .text._ZN2bn10sprite_ptr9set_tilesERKNS_17sprite_tiles_itemERKNS_17sprite_shape_sizeE
                0x00000000       0x80 bn_sprites_manager.o
 .text._ZN2bn10sprite_ptr9set_tilesERKNS_17sprite_tiles_itemERKNS_17sprite_shape_sizeEi
                0x00000000       0x88 bn_sprites_manager.o
 .text._ZN3_bn6assert9show_argsIJA29_ciA4_ciEEEvPKcS5_S5_iDpRKT_
                0x00000000       0x58 bn_sprites_manager.o
 .rodata._ZN2bn15sprites_manager11set_paletteEPvNS_8bpp_modeERKNS_18sprite_palette_ptrE.str1.4
                0x00000000       0x29 bn_sprites_manager.o
 .text._ZN2bn15sprites_manager11set_paletteEPvNS_8bpp_modeERKNS_18sprite_palette_ptrE
                0x00000000       0xb0 bn_sprites_manager.o
 .text._ZN2bn10sprite_ptr11set_paletteERKNS_18sprite_palette_ptrE
                0x00000000       0x4c bn_sprites_manager.o
 .text._ZN2bn15sprites_manager11set_paletteEPvNS_8bpp_modeEONS_18sprite_palette_ptrE
                0x00000000       0xb8 bn_sprites_manager.o
 .text._ZN2bn10sprite_ptr11set_paletteEONS_18sprite_palette_ptrE
                0x00000000       0x4c bn_sprites_manager.o
 .text._ZN2bn10sprite_ptr11set_paletteERKNS_19sprite_palette_itemE
                0x00000000       0xe0 bn_sprites_manager.o
 .text._ZN3_bn6assert9show_argsIJA39_ciA4_ciEEEvPKcS5_S5_iDpRKT_
                0x00000000       0x58 bn_sprites_manager.o
 .rodata._ZN2bn15sprites_manager21set_tiles_and_paletteEPvRKNS_17sprite_shape_sizeEONS_16sprite_tiles_ptrEONS_18sprite_palette_ptrE.str1.4
                0x00000000       0x73 bn_sprites_manager.o
 .text._ZN2bn15sprites_manager21set_tiles_and_paletteEPvRKNS_17sprite_shape_sizeEONS_16sprite_tiles_ptrEONS_18sprite_palette_ptrE
                0x00000000      0x3fc bn_sprites_manager.o
 .text._ZN2bn10sprite_ptr21set_tiles_and_paletteENS_16sprite_tiles_ptrENS_18sprite_palette_ptrE
                0x00000000       0x28 bn_sprites_manager.o
 .text._ZN2bn10sprite_ptr21set_tiles_and_paletteERKNS_17sprite_shape_sizeENS_16sprite_tiles_ptrENS_18sprite_palette_ptrE
                0x00000000       0x10 bn_sprites_manager.o
 .text._ZN2bn10sprite_ptr8set_itemERKNS_11sprite_itemE
                0x00000000      0x158 bn_sprites_manager.o
 .text._ZN2bn10sprite_ptr8set_itemERKNS_11sprite_itemEi
                0x00000000      0x15c bn_sprites_manager.o
 .text._ZN3_bn6assert9show_argsIA20_cEEvPKcS4_S4_iRKT_
                0x00000000       0x48 bn_sprites_manager.o
 .rodata._ZN2bn15sprites_manager25regular_second_attributesEPv.str1.4
                0x00000000       0x30 bn_sprites_manager.o
 .text._ZN2bn15sprites_manager25regular_second_attributesEPv
                0x00000000       0x4c bn_sprites_manager.o
 .rodata._ZN2bn15sprites_manager29set_regular_second_attributesEPvRKNS_32sprite_regular_second_attributesE.str1.4
                0x00000000       0x1e bn_sprites_manager.o
 .text._ZN2bn15sprites_manager29set_regular_second_attributesEPvRKNS_32sprite_regular_second_attributesE
                0x00000000       0x94 bn_sprites_manager.o
 .text._ZN2bn10sprite_ptr29set_regular_second_attributesERKNS_32sprite_regular_second_attributesE
                0x00000000       0x10 bn_sprites_manager.o
 .text._ZNK2bn10sprite_ptr25regular_second_attributesEv
                0x00000000       0x4c bn_sprites_manager.o
 .text._ZN3_bn6assert9show_argsIA19_cEEvPKcS4_S4_iRKT_
                0x00000000       0x48 bn_sprites_manager.o
 .rodata._ZN2bn15sprites_manager24affine_second_attributesEPv.str1.4
                0x00000000       0x2f bn_sprites_manager.o
 .text._ZN2bn15sprites_manager24affine_second_attributesEPv
                0x00000000       0x48 bn_sprites_manager.o
 .rodata._ZN2bn15sprites_manager28set_affine_second_attributesEPvRKNS_31sprite_affine_second_attributesE.str1.4
                0x00000000       0x1d bn_sprites_manager.o
 .text._ZN2bn15sprites_manager28set_affine_second_attributesEPvRKNS_31sprite_affine_second_attributesE
                0x00000000       0xb8 bn_sprites_manager.o
 .text._ZNK2bn10sprite_ptr24affine_second_attributesEv
                0x00000000       0x48 bn_sprites_manager.o
 .text._ZN2bn10sprite_ptr28set_affine_second_attributesERKNS_31sprite_affine_second_attributesE
                0x00000000       0xb8 bn_sprites_manager.o
 .text._ZN3_bn6assert9show_argsIA33_ciEEvPKcS4_S4_iRKT_RKT0_
                0x00000000       0x54 bn_sprites_manager.o
 .rodata._ZN2bn15sprites_manager26set_reserved_handles_countEi.str1.4
                0x00000000       0x8d bn_sprites_manager.o
 .text._ZN2bn15sprites_manager26set_reserved_handles_countEi
                0x00000000       0xac bn_sprites_manager.o
 .text._ZN2bn7sprites26set_reserved_handles_countEi
                0x00000000       0xac bn_sprites_manager.o
 .text._ZN3_bn6assert9show_argsIA13_cEEvPKcS4_S4_iRKT_
                0x00000000       0x48 bn_sprites_manager.o
 .text._ZN2bn10sprite_ptr6createERKNS_11sprite_itemE
                0x00000000       0x48 bn_sprites_manager.o
 .text._ZNK2bn11sprite_item13create_spriteEv
                0x00000000       0x10 bn_sprites_manager.o
 .text._ZN2bn10sprite_ptr6createERKNS_11sprite_itemEi
                0x00000000       0x48 bn_sprites_manager.o
 .text._ZNK2bn11sprite_item13create_spriteEi
                0x00000000       0x10 bn_sprites_manager.o
 .rodata._ZN2bn10sprite_ptr6createERKNS_17sprite_shape_sizeENS_16sprite_tiles_ptrENS_18sprite_palette_ptrE.str1.4
                0x00000000       0x51 bn_sprites_manager.o
 .text._ZN2bn10sprite_ptr6createERKNS_17sprite_shape_sizeENS_16sprite_tiles_ptrENS_18sprite_palette_ptrE
                0x00000000      0x210 bn_sprites_manager.o
 .text._ZN2bn10sprite_ptr6createENS_7fixed_tILi12EEES2_RKNS_11sprite_itemE
                0x00000000       0x44 bn_sprites_manager.o
 .text._ZN2bn10sprite_ptr6createENS_7fixed_tILi12EEES2_RKNS_11sprite_itemEi
                0x00000000       0x48 bn_sprites_manager.o
 .text._ZN2bn10sprite_ptr6createERKNS_13fixed_point_tILi12EEERKNS_11sprite_itemE
                0x00000000       0x44 bn_sprites_manager.o
 .text._ZN2bn10sprite_ptr6createERKNS_13fixed_point_tILi12EEERKNS_11sprite_itemEi
                0x00000000       0x48 bn_sprites_manager.o
 .text._ZN2bn10sprite_ptr6createENS_7fixed_tILi12EEES2_RKNS_17sprite_shape_sizeENS_16sprite_tiles_ptrENS_18sprite_palette_ptrE
                0x00000000      0x214 bn_sprites_manager.o
 .text._ZN2bn10sprite_ptr6createERKNS_13fixed_point_tILi12EEERKNS_17sprite_shape_sizeENS_16sprite_tiles_ptrENS_18sprite_palette_ptrE
                0x00000000      0x208 bn_sprites_manager.o
 .text._ZNK2bn11sprite_item13create_spriteERKNS_13fixed_point_tILi12EEEi
                0x00000000       0x44 bn_sprites_manager.o
 .text._ZNK2bn11sprite_item13create_spriteERKNS_13fixed_point_tILi12EEE
                0x00000000       0x40 bn_sprites_manager.o
 .text._ZNK2bn11sprite_item13create_spriteENS_7fixed_tILi12EEES2_i
                0x00000000       0x44 bn_sprites_manager.o
 .text._ZN2bn15sprites_manager15create_optionalERKNS_13fixed_point_tILi12EEERKNS_17sprite_shape_sizeEONS_16sprite_tiles_ptrEONS_18sprite_palette_ptrE
                0x00000000      0x1ac bn_sprites_manager.o
 .text._ZN2bn10sprite_ptr6createERKNS_14sprite_builderE
                0x00000000       0xf8 bn_sprites_manager.o
 .text._ZNK2bn14sprite_builder5buildEv
                0x00000000       0x10 bn_sprites_manager.o
 .text._ZN2bn14sprite_builder13release_buildEv
                0x00000000       0x14 bn_sprites_manager.o
 .text._ZN2bn15sprites_manager15create_optionalEONS_14sprite_builderE
                0x00000000      0x1c8 bn_sprites_manager.o
 .text._ZN3_bn6assert9show_argsIA33_cEEvPKcS4_S4_iRKT_
                0x00000000       0x48 bn_sprites_manager.o
 .text._ZN3_bn6assert9show_argsIA14_cEEvPKcS4_S4_iRKT_
                0x00000000       0x48 bn_sprites_manager.o
 .text._ZN2bn15sprites_manager9put_aboveEPv
                0x00000000       0x74 bn_sprites_manager.o
 .text._ZN2bn10sprite_ptr9put_aboveEv
                0x00000000       0x10 bn_sprites_manager.o
 .text._ZN2bn15sprites_manager15set_bg_priorityEPvi
                0x00000000      0x148 bn_sprites_manager.o
 .text._ZN2bn10sprite_ptr15set_bg_priorityEi
                0x00000000       0x10 bn_sprites_manager.o
 .text._ZN2bn15sprites_manager20set_third_attributesEPvRKNS_23sprite_third_attributesE
                0x00000000       0x50 bn_sprites_manager.o
 .text._ZN2bn10sprite_ptr20set_third_attributesERKNS_23sprite_third_attributesE
                0x00000000       0x10 bn_sprites_manager.o
 .rodata._ZN2bn15sprites_manager9put_belowEPv.str1.4
                0x00000000        0x5 bn_sprites_manager.o
 .text._ZN2bn15sprites_manager9put_belowEPv
                0x00000000       0x74 bn_sprites_manager.o
 .text._ZN2bn10sprite_ptr9put_belowEv
                0x00000000       0x10 bn_sprites_manager.o
 .text._ZN2bn10sprite_ptraSERKS0_
                0x00000000       0x28 bn_sprites_manager.o
 .rodata._ZN2bn10sprite_ptr15create_optionalERKNS_17sprite_shape_sizeENS_16sprite_tiles_ptrENS_18sprite_palette_ptrE.str1.4
                0x00000000       0x10 bn_sprites_manager.o
 .text._ZN2bn10sprite_ptr15create_optionalERKNS_17sprite_shape_sizeENS_16sprite_tiles_ptrENS_18sprite_palette_ptrE
                0x00000000      0x23c bn_sprites_manager.o
 .text._ZN2bn10sprite_ptr15create_optionalERKNS_13fixed_point_tILi12EEERKNS_11sprite_itemE
                0x00000000       0x9c bn_sprites_manager.o
 .text._ZN2bn10sprite_ptr15create_optionalERKNS_11sprite_itemE
                0x00000000       0x24 bn_sprites_manager.o
 .text._ZNK2bn11sprite_item22create_sprite_optionalEv
                0x00000000       0x24 bn_sprites_manager.o
 .text._ZN2bn10sprite_ptr15create_optionalENS_7fixed_tILi12EEES2_RKNS_11sprite_itemE
                0x00000000       0x1c bn_sprites_manager.o
 .text._ZNK2bn11sprite_item22create_sprite_optionalENS_7fixed_tILi12EEES2_
                0x00000000       0x1c bn_sprites_manager.o
 .text._ZNK2bn11sprite_item22create_sprite_optionalERKNS_13fixed_point_tILi12EEE
                0x00000000       0x18 bn_sprites_manager.o
 .text._ZN2bn10sprite_ptr15create_optionalERKNS_13fixed_point_tILi12EEERKNS_11sprite_itemEi
                0x00000000       0xa0 bn_sprites_manager.o
 .text._ZN2bn10sprite_ptr15create_optionalERKNS_11sprite_itemEi
                0x00000000       0x24 bn_sprites_manager.o
 .text._ZNK2bn11sprite_item22create_sprite_optionalEi
                0x00000000       0x24 bn_sprites_manager.o
 .text._ZN2bn10sprite_ptr15create_optionalENS_7fixed_tILi12EEES2_RKNS_11sprite_itemEi
                0x00000000       0x24 bn_sprites_manager.o
 .text._ZNK2bn11sprite_item22create_sprite_optionalENS_7fixed_tILi12EEES2_i
                0x00000000       0x20 bn_sprites_manager.o
 .text._ZNK2bn11sprite_item22create_sprite_optionalERKNS_13fixed_point_tILi12EEEi
                0x00000000       0x18 bn_sprites_manager.o
 .text._ZN2bn10sprite_ptr15create_optionalENS_7fixed_tILi12EEES2_RKNS_17sprite_shape_sizeENS_16sprite_tiles_ptrENS_18sprite_palette_ptrE
                0x00000000      0x23c bn_sprites_manager.o
 .text._ZN2bn10sprite_ptr15create_optionalERKNS_13fixed_point_tILi12EEERKNS_17sprite_shape_sizeENS_16sprite_tiles_ptrENS_18sprite_palette_ptrE
                0x00000000      0x234 bn_sprites_manager.o
 .text._ZN2bn10sprite_ptr15create_optionalERKNS_14sprite_builderE
                0x00000000      0x11c bn_sprites_manager.o
 .text._ZNK2bn14sprite_builder14build_optionalEv
                0x00000000       0x10 bn_sprites_manager.o
 .text._ZN2bn10sprite_ptr15create_optionalEONS_14sprite_builderE
                0x00000000       0x38 bn_sprites_manager.o
 .text._ZN2bn14sprite_builder22release_build_optionalEv
                0x00000000       0x38 bn_sprites_manager.o
 .text._ZN2bn10sprite_ptr11set_z_orderEi
                0x00000000      0x14c bn_sprites_manager.o
 .text._ZN2bn15sprites_manager11set_z_orderEPvi
                0x00000000      0x14c bn_sprites_manager.o
 .text._ZN2bn13ostringstream6appendILi12EEEvNS_7fixed_tIXT_EEE
                0x00000000       0xa0 bn_sprites_manager.o
 .text._ZN3_bn6assert9show_argsIA38_cN2bn7fixed_tILi12EEEEEvPKcS7_S7_iRKT_RKT0_
                0x00000000       0x54 bn_sprites_manager.o
 .rodata._ZN2bn14sprite_builder18set_rotation_angleENS_7fixed_tILi12EEE.str1.4
                0x00000000       0x76 bn_sprites_manager.o
 .text._ZN2bn14sprite_builder18set_rotation_angleENS_7fixed_tILi12EEE
                0x00000000      0x124 bn_sprites_manager.o
 .text._ZN2bn14sprite_builder23set_rotation_angle_safeENS_7fixed_tILi12EEE
                0x00000000       0x34 bn_sprites_manager.o
 .text._ZN2bn10sprite_ptr18set_rotation_angleENS_7fixed_tILi12EEE
                0x00000000       0xc0 bn_sprites_manager.o
 .text._ZN2bn10sprite_ptr23set_rotation_angle_safeENS_7fixed_tILi12EEE
                0x00000000       0x34 bn_sprites_manager.o
 .text._ZN3_bn6assert9show_argsIA27_cN2bn7fixed_tILi12EEEEEvPKcS7_S7_iRKT_RKT0_
                0x00000000       0x54 bn_sprites_manager.o
 .rodata._ZN2bn14sprite_builder20set_horizontal_scaleENS_7fixed_tILi12EEE.str1.4
                0x00000000       0x67 bn_sprites_manager.o
 .text._ZN2bn14sprite_builder20set_horizontal_scaleENS_7fixed_tILi12EEE
                0x00000000      0x10c bn_sprites_manager.o
 .text._ZN2bn10sprite_ptr20set_horizontal_scaleENS_7fixed_tILi12EEE
                0x00000000       0xb8 bn_sprites_manager.o
 .text._ZN3_bn6assert9show_argsIA25_cN2bn7fixed_tILi12EEEEEvPKcS7_S7_iRKT_RKT0_
                0x00000000       0x54 bn_sprites_manager.o
 .rodata._ZN2bn14sprite_builder18set_vertical_scaleENS_7fixed_tILi12EEE.str1.4
                0x00000000       0x41 bn_sprites_manager.o
 .text._ZN2bn14sprite_builder18set_vertical_scaleENS_7fixed_tILi12EEE
                0x00000000      0x10c bn_sprites_manager.o
 .rodata._ZN2bn14sprite_builder9set_scaleENS_7fixed_tILi12EEES2_.str1.4
                0x00000000        0xa bn_sprites_manager.o
 .text._ZN2bn14sprite_builder9set_scaleENS_7fixed_tILi12EEES2_
                0x00000000      0x1a4 bn_sprites_manager.o
 .text._ZN2bn10sprite_ptr18set_vertical_scaleENS_7fixed_tILi12EEE
                0x00000000       0xb8 bn_sprites_manager.o
 .text._ZN2bn10sprite_ptr9set_scaleENS_7fixed_tILi12EEES2_
                0x00000000      0x148 bn_sprites_manager.o
 .text._ZN3_bn6assert9show_argsIA16_cN2bn7fixed_tILi12EEEEEvPKcS7_S7_iRKT_RKT0_
                0x00000000       0x54 bn_sprites_manager.o
 .rodata._ZN2bn14sprite_builder9set_scaleENS_7fixed_tILi12EEE.str1.4
                0x00000000       0x1c bn_sprites_manager.o
 .text._ZN2bn14sprite_builder9set_scaleENS_7fixed_tILi12EEE
                0x00000000      0x110 bn_sprites_manager.o
 .text._ZN2bn10sprite_ptr9set_scaleENS_7fixed_tILi12EEE
                0x00000000       0xbc bn_sprites_manager.o
 .rodata        0x00000000       0x28 bn_sprites_manager.o
 .group         0x00000000        0xc bn_sstream.o
 .group         0x00000000        0xc bn_sstream.o
 .group         0x00000000        0xc bn_sstream.o
 .group         0x00000000        0xc bn_sstream.o
 .group         0x00000000        0xc bn_sstream.o
 .group         0x00000000        0xc bn_sstream.o
 .group         0x00000000        0xc bn_sstream.o
 .text          0x00000000        0x0 bn_sstream.o
 .data          0x00000000        0x0 bn_sstream.o
 .bss           0x00000000        0x0 bn_sstream.o
 .text._ZN2bn13ostringstream9set_rdbufERNS_12istring_baseE
                0x00000000        0x4 bn_sstream.o
 .text._ZNK2bn13ostringstream4viewEv
                0x00000000       0x10 bn_sstream.o
 .text._ZNK2bn13ostringstream4sizeEv
                0x00000000        0x8 bn_sstream.o
 .text._ZNK2bn13ostringstream6lengthEv
                0x00000000        0x8 bn_sstream.o
 .text._ZNK2bn13ostringstream8max_sizeEv
                0x00000000        0x8 bn_sstream.o
 .text._ZNK2bn13ostringstream9availableEv
                0x00000000        0xc bn_sstream.o
 .text._ZNK2bn13ostringstream5emptyEv
                0x00000000        0xc bn_sstream.o
 .text._ZNK2bn13ostringstream4fullEv
                0x00000000       0x10 bn_sstream.o
 .text._ZN2bn13ostringstream4swapERS0_
                0x00000000       0x14 bn_sstream.o
 .text._ZN3_bn6assert9show_argsIJA19_ciA4_ciEEEvPKcS5_S5_iDpRKT_
                0x00000000      0x118 bn_sstream.o
 .text._ZN2bn13ostringstream6appendERKNS_12istring_baseE
                0x00000000       0x78 bn_sstream.o
 .text._ZN2bn7istring6appendEPKc.isra.0
                0x00000000       0xac bn_sstream.o
 .text._ZN3_bn6assert9show_argsIA20_cEEvPKcS4_S4_iRKT_
                0x00000000       0x40 bn_sstream.o
 .text._ZN3_bn6assert9show_argsIA26_ciEEvPKcS4_S4_iRKT_RKT0_
                0x00000000       0x50 bn_sstream.o
 .text._ZN2bn13ostringstream6appendEl
                0x00000000       0xb0 bn_sstream.o
 .text._ZN2bn13ostringstream6appendEm
                0x00000000       0xb0 bn_sstream.o
 .text._ZN2bn13ostringstream6appendEx
                0x00000000       0xb4 bn_sstream.o
 .text._ZN2bn13ostringstream6appendEy
                0x00000000       0xb4 bn_sstream.o
 .text._ZN2bn13ostringstream6appendEPKci
                0x00000000       0xb4 bn_sstream.o
 .text._ZN3_bn6assert9show_argsIA15_cEEvPKcS4_S4_iRKT_
                0x00000000       0x40 bn_sstream.o
 .text._ZN2bn13ostringstream16_append_fractionEji
                0x00000000      0x120 bn_sstream.o
 .text._ZN3_bn6assert9show_argsIA11_cEEvPKcS4_S4_iRKT_
                0x00000000       0x40 bn_sstream.o
 .rodata._ZN2bn13ostringstream5rdbufEPNS_12istring_baseE.str1.4
                0x00000000       0x23 bn_sstream.o
 .text._ZN2bn13ostringstream5rdbufEPNS_12istring_baseE
                0x00000000       0x34 bn_sstream.o
 .text._ZN3_bn6assert9show_argsIA24_ciEEvPKcS4_S4_iRKT_RKT0_
                0x00000000       0x50 bn_sstream.o
 .rodata._ZN2bn13ostringstream9precisionEi.str1.4
                0x00000000       0x38 bn_sstream.o
 .text._ZN2bn13ostringstream9precisionEi
                0x00000000       0x38 bn_sstream.o
 .text._ZN3_bn6assert9show_argsIA20_ciEEvPKcS4_S4_iRKT_RKT0_
                0x00000000       0x50 bn_sstream.o
 .rodata._ZN2bn13ostringstream13set_precisionEi.str1.4
                0x00000000       0x34 bn_sstream.o
 .text._ZN2bn13ostringstream13set_precisionEi
                0x00000000       0x38 bn_sstream.o
 .group         0x00000000        0xc bn_translation_unit.o
 .group         0x00000000        0xc bn_translation_unit.o
 .group         0x00000000        0xc bn_translation_unit.o
 .group         0x00000000        0xc bn_translation_unit.o
 .group         0x00000000        0xc bn_translation_unit.o
 .group         0x00000000        0xc bn_translation_unit.o
 .group         0x00000000        0xc bn_translation_unit.o
 .group         0x00000000        0xc bn_translation_unit.o
 .group         0x00000000        0xc bn_translation_unit.o
 .group         0x00000000        0xc bn_translation_unit.o
 .group         0x00000000        0xc bn_translation_unit.o
 .group         0x00000000        0xc bn_translation_unit.o
 .group         0x00000000        0xc bn_translation_unit.o
 .group         0x00000000        0xc bn_translation_unit.o
 .group         0x00000000        0xc bn_translation_unit.o
 .group         0x00000000        0xc bn_translation_unit.o
 .group         0x00000000        0xc bn_translation_unit.o
 .group         0x00000000        0xc bn_translation_unit.o
 .group         0x00000000        0xc bn_translation_unit.o
 .group         0x00000000        0xc bn_translation_unit.o
 .group         0x00000000        0xc bn_translation_unit.o
 .group         0x00000000        0xc bn_translation_unit.o
 .group         0x00000000        0xc bn_translation_unit.o
 .group         0x00000000        0xc bn_translation_unit.o
 .group         0x00000000        0xc bn_translation_unit.o
 .group         0x00000000        0xc bn_translation_unit.o
 .group         0x00000000        0xc bn_translation_unit.o
 .group         0x00000000        0xc bn_translation_unit.o
 .group         0x00000000        0xc bn_translation_unit.o
 .text          0x00000000        0x0 bn_translation_unit.o
 .data          0x00000000        0x0 bn_translation_unit.o
 .bss           0x00000000        0x0 bn_translation_unit.o
 .text._ZN2bn2hw8palettes9grayscaleEPKNS_5colorEiiPS2_.part.0
                0x00000000       0x40 bn_translation_unit.o
 .text._ZN2bn13ostringstream11append_argsIiJA4_ciEEEvRKT_DpRKT0_.isra.0
                0x00000000       0x24 bn_translation_unit.o
 .text._ZN2bn12color_effect6invertENS_4spanINS_5colorEEE
                0x00000000       0x54 bn_translation_unit.o
 .text._ZN2bn5timer26elapsed_ticks_with_restartEv
                0x00000000       0x2c bn_translation_unit.o
 .text._ZN2bn8backdrop5colorEv
                0x00000000       0x14 bn_translation_unit.o
 .text._ZN2bn8backdrop9set_colorENS_5colorE
                0x00000000       0x20 bn_translation_unit.o
 .text._ZN2bn8backdrop9set_colorERKNS_8optionalINS_5colorEEE
                0x00000000       0x14 bn_translation_unit.o
 .text._ZN2bn8backdrop12remove_colorEv
                0x00000000       0x18 bn_translation_unit.o
 .text._ZN2bn8backdrop23blending_bottom_enabledEv
                0x00000000        0xc bn_translation_unit.o
 .text._ZN2bn8backdrop27set_blending_bottom_enabledEb
                0x00000000        0xc bn_translation_unit.o
 .text._ZN2bn3logENS_9log_levelERKNS_12istring_baseE
                0x00000000       0x60 bn_translation_unit.o
 .text._ZN3_bn9sqrt_implEi
                0x00000000       0x18 bn_translation_unit.o
 .text._ZN3_bn4sram11unsafe_readEPvii
                0x00000000       0x18 bn_translation_unit.o
 .text._ZN3_bn4sram12unsafe_writeEPKvii
                0x00000000       0x18 bn_translation_unit.o
 .text._ZN3_bn6assert9show_argsIA16_ciEEvPKcS4_S4_iRKT_RKT0_
                0x00000000       0x54 bn_translation_unit.o
 .text._ZN3_bn6assert9show_argsIJA32_ciA4_ciEEEvPKcS5_S5_iDpRKT_
                0x00000000       0x58 bn_translation_unit.o
 .text._ZN3_bn6assert9show_argsIA12_ciEEvPKcS4_S4_iRKT_RKT0_
                0x00000000       0x54 bn_translation_unit.o
 .rodata._ZN2bn5atan2Eii.str1.4
                0x00000000       0x68 bn_translation_unit.o
 .text._ZN2bn5atan2Eii
                0x00000000       0x84 bn_translation_unit.o
 .text._ZN3_bn6assert9show_argsIJA35_ciA4_ciEEEvPKcS5_S5_iDpRKT_
                0x00000000       0x58 bn_translation_unit.o
 .rodata._ZN2bn12color_effect6invertERKNS_4spanIKNS_5colorEEENS1_IS2_EE.str1.4
                0x00000000       0x77 bn_translation_unit.o
 .text._ZN2bn12color_effect6invertERKNS_4spanIKNS_5colorEEENS1_IS2_EE
                0x00000000       0xa0 bn_translation_unit.o
 .text._ZN3_bn6assert9show_argsIA23_cEEvPKcS4_S4_iRKT_
                0x00000000       0x48 bn_translation_unit.o
 .text._ZN3_bn6assert9show_argsIA19_ciEEvPKcS4_S4_iRKT_RKT0_
                0x00000000       0x54 bn_translation_unit.o
 .text._ZN3_bn6assert9show_argsIA23_ciEEvPKcS4_S4_iRKT_RKT0_
                0x00000000       0x54 bn_translation_unit.o
 .text._ZN3_bn6assert9show_argsIA30_cEEvPKcS4_S4_iRKT_
                0x00000000       0x48 bn_translation_unit.o
 .text._ZN3_bn6assert9show_argsIA35_cEEvPKcS4_S4_iRKT_
                0x00000000       0x48 bn_translation_unit.o
 .text._ZN3_bn6assert9show_argsIA30_ciEEvPKcS4_S4_iRKT_RKT0_
                0x00000000       0x54 bn_translation_unit.o
 .text._ZN3_bn6assert9show_argsIA36_cEEvPKcS4_S4_iRKT_
                0x00000000       0x48 bn_translation_unit.o
 .text._ZN3_bn6assert9show_argsIA37_cEEvPKcS4_S4_iRKT_
                0x00000000       0x48 bn_translation_unit.o
 .text._ZN3_bn6assert9show_argsIJA37_ciA4_ciEEEvPKcS5_S5_iDpRKT_
                0x00000000       0x58 bn_translation_unit.o
 .text._ZN3_bn6assert9show_argsIJA23_ciA4_ciEEEvPKcS5_S5_iDpRKT_
                0x00000000       0x58 bn_translation_unit.o
 .rodata._ZN2bn12color_effect6rotateEiNS_4spanINS_5colorEEE.str1.4
                0x00000000       0x83 bn_translation_unit.o
 .text._ZN2bn12color_effect6rotateEiNS_4spanINS_5colorEEE
                0x00000000       0xa0 bn_translation_unit.o
 .text._ZN2bn12color_effect6rotateERKNS_4spanIKNS_5colorEEEiNS1_IS2_EE
                0x00000000       0x90 bn_translation_unit.o
 .text._ZN3_bn6assert9show_argsIA18_cEEvPKcS4_S4_iRKT_
                0x00000000       0x48 bn_translation_unit.o
 .text._ZN2bn18igeneric_pool_baseD2Ev
                0x00000000       0x30 bn_translation_unit.o
 .text._ZN3_bn6assert9show_argsIA13_cEEvPKcS4_S4_iRKT_
                0x00000000       0x48 bn_translation_unit.o
 .text._ZN3_bn6assert9show_argsIA26_ciEEvPKcS4_S4_iRKT_RKT0_
                0x00000000       0x54 bn_translation_unit.o
 .rodata._ZN2bn4sram10write_spanERKNS_4spanIKhEE.str1.4
                0x00000000       0x4e bn_translation_unit.o
 .text._ZN2bn4sram10write_spanERKNS_4spanIKhEE
                0x00000000       0x44 bn_translation_unit.o
 .text._ZN3_bn6assert9show_argsIA21_cEEvPKcS4_S4_iRKT_
                0x00000000       0x48 bn_translation_unit.o
 .text._ZN3_bn6assert9show_argsIA39_cEEvPKcS4_S4_iRKT_
                0x00000000       0x48 bn_translation_unit.o
 .rodata._ZN3_bn6formatERN2bn13ostringstreamEPKcS4_.str1.4
                0x00000000       0x7f bn_translation_unit.o
 .text._ZN3_bn6formatERN2bn13ostringstreamEPKcS4_
                0x00000000       0xc0 bn_translation_unit.o
 .text._ZN3_bn6assert9show_argsIA20_ciEEvPKcS4_S4_iRKT_RKT0_
                0x00000000       0x54 bn_translation_unit.o
 .rodata._ZN2bn4sram5clearEi.str1.4
                0x00000000       0x48 bn_translation_unit.o
 .text._ZN2bn4sram5clearEi
                0x00000000       0x64 bn_translation_unit.o
 .rodata._ZN2bn4sram9set_bytesEhi.str1.4
                0x00000000        0xa bn_translation_unit.o
 .text._ZN2bn4sram9set_bytesEhi
                0x00000000       0x60 bn_translation_unit.o
 .text._ZN3_bn6assert9show_argsIA31_ciEEvPKcS4_S4_iRKT_RKT0_
                0x00000000       0x54 bn_translation_unit.o
 .rodata._ZN2bn4sram9read_spanERNS_4spanIhEE.str1.4
                0x00000000       0x47 bn_translation_unit.o
 .text._ZN2bn4sram9read_spanERNS_4spanIhEE
                0x00000000       0x48 bn_translation_unit.o
 .text._ZN3_bn6assert9show_argsIA17_ciEEvPKcS4_S4_iRKT_RKT0_
                0x00000000       0x54 bn_translation_unit.o
 .rodata._ZN2bn4sram5clearEii.str1.4
                0x00000000       0x5c bn_translation_unit.o
 .text._ZN2bn4sram5clearEii
                0x00000000       0x98 bn_translation_unit.o
 .text._ZN2bn4sram9set_bytesEhii
                0x00000000       0x98 bn_translation_unit.o
 .text._ZN3_bn6assert9show_argsIJA43_ciA4_ciEEEvPKcS5_S5_iDpRKT_
                0x00000000       0x58 bn_translation_unit.o
 .rodata._ZN2bn4sram16read_span_offsetERNS_4spanIhEEi.str1.4
                0x00000000       0x63 bn_translation_unit.o
 .text._ZN2bn4sram16read_span_offsetERNS_4spanIhEEi
                0x00000000       0x84 bn_translation_unit.o
 .text._ZN3_bn6assert9show_argsIJA38_ciA4_ciEEEvPKcS5_S5_iDpRKT_
                0x00000000       0x58 bn_translation_unit.o
 .rodata._ZN2bn4sram17write_span_offsetERKNS_4spanIKhEEi.str1.4
                0x00000000       0x5a bn_translation_unit.o
 .text._ZN2bn4sram17write_span_offsetERKNS_4spanIKhEEi
                0x00000000       0x7c bn_translation_unit.o
 .text._ZN2bn13ostringstream6appendILi12EEEvNS_7fixed_tIXT_EEE
                0x00000000       0xa0 bn_translation_unit.o
 .text._ZN3_bn6assert9show_argsIA21_cN2bn7fixed_tILi12EEEEEvPKcS7_S7_iRKT_RKT0_
                0x00000000       0x54 bn_translation_unit.o
 .rodata._ZN2bn12color_effect10brightnessENS_7fixed_tILi12EEENS_4spanINS_5colorEEE.str1.4
                0x00000000       0x45 bn_translation_unit.o
 .text._ZN2bn12color_effect10brightnessENS_7fixed_tILi12EEENS_4spanINS_5colorEEE
                0x00000000       0x50 bn_translation_unit.o
 .text._ZN2bn12color_effect10brightnessERKNS_4spanIKNS_5colorEEENS_7fixed_tILi12EEENS1_IS2_EE
                0x00000000       0x88 bn_translation_unit.o
 .text._ZN3_bn6assert9show_argsIA19_cN2bn7fixed_tILi12EEEEEvPKcS7_S7_iRKT_RKT0_
                0x00000000       0x54 bn_translation_unit.o
 .rodata._ZN2bn12color_effect8contrastENS_7fixed_tILi12EEENS_4spanINS_5colorEEE.str1.4
                0x00000000       0x3f bn_translation_unit.o
 .text._ZN2bn12color_effect8contrastENS_7fixed_tILi12EEENS_4spanINS_5colorEEE
                0x00000000       0x50 bn_translation_unit.o
 .text._ZN2bn12color_effect8contrastERKNS_4spanIKNS_5colorEEENS_7fixed_tILi12EEENS1_IS2_EE
                0x00000000       0x88 bn_translation_unit.o
 .text._ZN3_bn6assert9show_argsIA20_cN2bn7fixed_tILi12EEEEEvPKcS7_S7_iRKT_RKT0_
                0x00000000       0x54 bn_translation_unit.o
 .rodata._ZN2bn12color_effect9intensityENS_7fixed_tILi12EEENS_4spanINS_5colorEEE.str1.4
                0x00000000       0x44 bn_translation_unit.o
 .text._ZN2bn12color_effect9intensityENS_7fixed_tILi12EEENS_4spanINS_5colorEEE
                0x00000000       0x50 bn_translation_unit.o
 .rodata._ZN2bn12color_effect9grayscaleENS_7fixed_tILi12EEENS_4spanINS_5colorEEE.str1.4
                0x00000000       0x4b bn_translation_unit.o
 .text._ZN2bn12color_effect9grayscaleENS_7fixed_tILi12EEENS_4spanINS_5colorEEE
                0x00000000       0xc0 bn_translation_unit.o
 .rodata._ZN2bn12color_effect9hue_shiftENS_7fixed_tILi12EEENS_4spanINS_5colorEEE.str1.4
                0x00000000        0xa bn_translation_unit.o
 .text._ZN2bn12color_effect9hue_shiftENS_7fixed_tILi12EEENS_4spanINS_5colorEEE
                0x00000000       0x50 bn_translation_unit.o
 .rodata._ZN2bn12color_effect4fadeENS_5colorENS_7fixed_tILi12EEENS_4spanIS1_EE.str1.4
                0x00000000        0x5 bn_translation_unit.o
 .text._ZN2bn12color_effect4fadeENS_5colorENS_7fixed_tILi12EEENS_4spanIS1_EE
                0x00000000       0xb4 bn_translation_unit.o
 .text._ZN2bn12color_effect9intensityERKNS_4spanIKNS_5colorEEENS_7fixed_tILi12EEENS1_IS2_EE
                0x00000000       0x88 bn_translation_unit.o
 .rodata._ZN2bn12color_effect9grayscaleERKNS_4spanIKNS_5colorEEENS_7fixed_tILi12EEENS1_IS2_EE.str1.4
                0x00000000       0x9e bn_translation_unit.o
 .text._ZN2bn12color_effect9grayscaleERKNS_4spanIKNS_5colorEEENS_7fixed_tILi12EEENS1_IS2_EE
                0x00000000      0x11c bn_translation_unit.o
 .text._ZN2bn12color_effect9hue_shiftERKNS_4spanIKNS_5colorEEENS_7fixed_tILi12EEENS1_IS2_EE
                0x00000000       0x88 bn_translation_unit.o
 .text._ZN2bn12color_effect4fadeERKNS_4spanIKNS_5colorEEES2_NS_7fixed_tILi12EEENS1_IS2_EE
                0x00000000      0x10c bn_translation_unit.o
 .text._ZN3_bn6assert9show_argsIA17_cN2bn7fixed_tILi12EEEEEvPKcS7_S7_iRKT_RKT0_
                0x00000000       0x54 bn_translation_unit.o
 .rodata._ZN2bn12color_effect5blendERKNS_4spanIKNS_5colorEEES6_NS_7fixed_tILi12EEENS1_IS2_EE.str1.4
                0x00000000      0x11d bn_translation_unit.o
 .text._ZN2bn12color_effect5blendERKNS_4spanIKNS_5colorEEES6_NS_7fixed_tILi12EEENS1_IS2_EE
                0x00000000      0x148 bn_translation_unit.o
 .rodata._ZN2bn7sin_lutE
                0x00000000        0x4 bn_translation_unit.o
 .rodata._ZN2bn12_GLOBAL__N_1L12sin_lut_implE
                0x00000000     0x1002 bn_translation_unit.o
 .rodata._ZN2bn17reciprocal_16_lutE
                0x00000000        0x4 bn_translation_unit.o
 .rodata._ZN2bn14reciprocal_lutE
                0x00000000        0x4 bn_translation_unit.o
 .rodata._ZN2bn12_GLOBAL__N_1L22reciprocal_16_lut_implE
                0x00000000      0x802 bn_translation_unit.o
 .rodata._ZN2bn12_GLOBAL__N_1L19reciprocal_lut_implE
                0x00000000     0x1004 bn_translation_unit.o
 .group         0x00000000        0xc bn_hw_audio.o
 .group         0x00000000        0xc bn_hw_audio.o
 .group         0x00000000        0xc bn_hw_audio.o
 .group         0x00000000        0xc bn_hw_audio.o
 .group         0x00000000        0xc bn_hw_audio.o
 .group         0x00000000        0xc bn_hw_audio.o
 .text          0x00000000        0x0 bn_hw_audio.o
 .data          0x00000000        0x0 bn_hw_audio.o
 .bss           0x00000000        0x0 bn_hw_audio.o
 .text._ZN2bn2hw5audio6enableEv
                0x00000000       0x14 bn_hw_audio.o
 .text._ZN2bn2hw5audio22available_mixing_ratesEv
                0x00000000       0x1c bn_hw_audio.o
 .text._ZN2bn2hw5audio9event_idsEv
                0x00000000       0x14 bn_hw_audio.o
 .text._ZN3_bn6assert9show_argsIA22_ciEEvPKcS4_S4_iRKT_RKT0_
                0x00000000       0x54 bn_hw_audio.o
 .text._ZN3_bn6assert9show_argsIA27_ciEEvPKcS4_S4_iRKT_RKT0_
                0x00000000       0x54 bn_hw_audio.o
 .text._ZN3_bn6assert9show_argsIA14_cEEvPKcS4_S4_iRKT_
                0x00000000       0x48 bn_hw_audio.o
 .text._ZN3_bn6assert9show_argsIA13_cEEvPKcS4_S4_iRKT_
                0x00000000       0x48 bn_hw_audio.o
 .text._ZN3_bn6assert9show_argsIA33_cEEvPKcS4_S4_iRKT_
                0x00000000       0x48 bn_hw_audio.o
 .rodata._ZN2bn2hw5audio12_GLOBAL__N_1L12mixing_ratesE
                0x00000000        0x8 bn_hw_audio.o
 .group         0x00000000        0xc bn_hw_common.bn_noflto.o
 .group         0x00000000        0xc bn_hw_common.bn_noflto.o
 .text          0x00000000        0x0 bn_hw_common.bn_noflto.o
 .data          0x00000000        0x0 bn_hw_common.bn_noflto.o
 .bss           0x00000000        0x0 bn_hw_common.bn_noflto.o
 .text.__assert_func
                0x00000000       0x10 bn_hw_common.bn_noflto.o
 .text.__aeabi_atexit
                0x00000000        0x4 bn_hw_common.bn_noflto.o
 .text._ZN3_bn6assert9show_argsIA27_cEEvPKcS4_S4_iRKT_
                0x00000000       0x48 bn_hw_common.bn_noflto.o
 .text.__cxa_pure_virtual
                0x00000000       0x24 bn_hw_common.bn_noflto.o
 .rodata.__aeabi_ldiv0.str1.4
                0x00000000       0x38 bn_hw_common.bn_noflto.o
 .text.__aeabi_ldiv0
                0x00000000       0x24 bn_hw_common.bn_noflto.o
 .bss.__dso_handle
                0x00000000        0x4 bn_hw_common.bn_noflto.o
 .group         0x00000000        0xc bn_hw_cstdlib.o
 .text          0x00000000        0x0 bn_hw_cstdlib.o
 .data          0x00000000        0x0 bn_hw_cstdlib.o
 .bss           0x00000000        0x0 bn_hw_cstdlib.o
 .text.malloc   0x00000000        0xc bn_hw_cstdlib.o
 .text.calloc   0x00000000        0xc bn_hw_cstdlib.o
 .text.realloc  0x00000000        0xc bn_hw_cstdlib.o
 .text._ZN3_bn6assert9show_argsIA11_cEEvPKcS4_S4_iRKT_
                0x00000000       0x48 bn_hw_cstdlib.o
 .rodata.abort.str1.4
                0x00000000       0x2b bn_hw_cstdlib.o
 .text.unlikely.abort
                0x00000000       0x24 bn_hw_cstdlib.o
 .text          0x00000000        0x0 bn_hw_cstring.o
 .data          0x00000000        0x0 bn_hw_cstring.o
 .bss           0x00000000        0x0 bn_hw_cstring.o
 .text.memcmp   0x00000000       0x74 bn_hw_cstring.o
 .debug_info    0x00000000      0x5b5 bn_hw_cstring.o
 .debug_abbrev  0x00000000      0x185 bn_hw_cstring.o
 .debug_loc     0x00000000      0x2f4 bn_hw_cstring.o
 .debug_aranges
                0x00000000       0x20 bn_hw_cstring.o
 .debug_ranges  0x00000000       0x40 bn_hw_cstring.o
 .debug_line    0x00000000      0x33b bn_hw_cstring.o
 .debug_str     0x00000000      0x4fb bn_hw_cstring.o
 .comment       0x00000000       0x19 bn_hw_cstring.o
 .debug_frame   0x00000000       0x2c bn_hw_cstring.o
 .group         0x00000000        0xc bn_hw_dmg_audio.o
 .group         0x00000000        0xc bn_hw_dmg_audio.o
 .group         0x00000000        0xc bn_hw_dmg_audio.o
 .group         0x00000000        0xc bn_hw_dmg_audio.o
 .text          0x00000000        0x0 bn_hw_dmg_audio.o
 .data          0x00000000        0x0 bn_hw_dmg_audio.o
 .bss           0x00000000        0x0 bn_hw_dmg_audio.o
 .text._ZN2bn2hw9dmg_audio6enableEv
                0x00000000       0x14 bn_hw_dmg_audio.o
 .text._ZN3_bn6assert9show_argsIA14_ciEEvPKcS4_S4_iRKT_RKT0_
                0x00000000       0x54 bn_hw_dmg_audio.o
 .text._ZN3_bn6assert9show_argsIA46_cEEvPKcS4_S4_iRKT_
                0x00000000       0x48 bn_hw_dmg_audio.o
 .text          0x00000000        0x0 bn_hw_game_pak.bn_ewram.o
 .data          0x00000000        0x0 bn_hw_game_pak.bn_ewram.o
 .bss           0x00000000        0x0 bn_hw_game_pak.bn_ewram.o
 .text          0x00000000        0x0 bn_hw_gpio.bn_noflto.o
 .data          0x00000000        0x0 bn_hw_gpio.bn_noflto.o
 .bss           0x00000000        0x0 bn_hw_gpio.bn_noflto.o
 .group         0x00000000        0xc bn_hw_link.o
 .group         0x00000000        0xc bn_hw_link.o
 .text          0x00000000        0x0 bn_hw_link.o
 .data          0x00000000        0x0 bn_hw_link.o
 .bss           0x00000000        0x0 bn_hw_link.o
 .text._ZN2bn2hw4link6enableEv
                0x00000000       0xa4 bn_hw_link.o
 .text._ZN2bn2hw4link10deactivateEv
                0x00000000       0x24 bn_hw_link.o
 .text._ZN3_bn6assert9show_argsIA15_cEEvPKcS4_S4_iRKT_
                0x00000000       0x48 bn_hw_link.o
 .text._ZN2bn2hw4link7receiveERNS_2lc12LinkResponseE
                0x00000000       0x88 bn_hw_link.o
 .text._ZN3_bn6assert9show_argsIA14_cEEvPKcS4_S4_iRKT_
                0x00000000       0x48 bn_hw_link.o
 .text._ZN2bn2hw4link4sendEi
                0x00000000       0xa0 bn_hw_link.o
 .text          0x00000000        0x0 bn_hw_palettes.bn_iwram.o
 .data          0x00000000        0x0 bn_hw_palettes.bn_iwram.o
 .bss           0x00000000        0x0 bn_hw_palettes.bn_iwram.o
 .text          0x00000000        0x0 bn_hw_palettes.o
 .data          0x00000000        0x0 bn_hw_palettes.o
 .bss           0x00000000        0x0 bn_hw_palettes.o
 .group         0x00000000        0xc bn_hw_show.o
 .group         0x00000000        0xc bn_hw_show.o
 .group         0x00000000        0xc bn_hw_show.o
 .text          0x00000000        0x0 bn_hw_show.o
 .data          0x00000000        0x0 bn_hw_show.o
 .bss           0x00000000        0x0 bn_hw_show.o
 .text._ZN3_bn6assert9show_argsIA20_cEEvPKcS4_S4_iRKT_
                0x00000000       0x48 bn_hw_show.o
 .text._ZN3_bn6assert9show_argsIA26_ciEEvPKcS4_S4_iRKT_RKT0_
                0x00000000       0x54 bn_hw_show.o
 .text._ZN3_bn6assert9show_argsIJA19_ciA4_ciEEEvPKcS5_S5_iDpRKT_
                0x00000000       0x64 bn_hw_show.o
 .text          0x00000000        0x0 bn_hw_sprite_tiles.bn_iwram.o
 .data          0x00000000        0x0 bn_hw_sprite_tiles.bn_iwram.o
 .bss           0x00000000        0x0 bn_hw_sprite_tiles.bn_iwram.o
 .text          0x00000000        0x0 bn_hw_sram.bn_ewram.o
 .data          0x00000000        0x0 bn_hw_sram.bn_ewram.o
 .bss           0x00000000        0x0 bn_hw_sram.bn_ewram.o
 .ewram         0x00000000       0x10 bn_hw_sram.bn_ewram.o
 .debug_info    0x00000000      0x521 bn_hw_sram.bn_ewram.o
 .debug_abbrev  0x00000000      0x178 bn_hw_sram.bn_ewram.o
 .debug_loc     0x00000000       0xe4 bn_hw_sram.bn_ewram.o
 .debug_aranges
                0x00000000       0x20 bn_hw_sram.bn_ewram.o
 .debug_ranges  0x00000000       0x10 bn_hw_sram.bn_ewram.o
 .debug_line    0x00000000      0x2fa bn_hw_sram.bn_ewram.o
 .debug_str     0x00000000      0x52b bn_hw_sram.bn_ewram.o
 .comment       0x00000000       0x19 bn_hw_sram.bn_ewram.o
 .debug_frame   0x00000000       0x20 bn_hw_sram.bn_ewram.o
 .text          0x00000000        0x0 bn_hw_sram.bn_noflto.o
 .data          0x00000000        0x0 bn_hw_sram.bn_noflto.o
 .bss           0x00000000        0x0 bn_hw_sram.bn_noflto.o
 .text          0x00000000        0x0 bn_hw_system_font.o
 .data          0x00000000        0x0 bn_hw_system_font.o
 .bss           0x00000000        0x0 bn_hw_system_font.o
 .text._ZN2bn11system_fontC2ERK5TFont
                0x00000000       0x14 bn_hw_system_font.o
 .group         0x00000000        0xc bn_hw_text.o
 .text          0x00000000        0x0 bn_hw_text.o
 .data          0x00000000        0x0 bn_hw_text.o
 .bss           0x00000000        0x0 bn_hw_text.o
 .text._ZN2bn2hw4text5parseEmRNS_5arrayIcLi32EEE
                0x00000000        0xc bn_hw_text.o
 .text._ZN2bn2hw4text5parseEyRNS_5arrayIcLi32EEE
                0x00000000       0xdc bn_hw_text.o
 .text._ZN3_bn6assert9show_argsIA20_cEEvPKcS4_S4_iRKT_
                0x00000000       0x48 bn_hw_text.o
 .text._ZN2bn2hw4text5parseExRNS_5arrayIcLi32EEE
                0x00000000      0x12c bn_hw_text.o
 .text._ZN2bn2hw4text5parseElRNS_5arrayIcLi32EEE
                0x00000000        0xc bn_hw_text.o
 .text          0x00000000        0x0 vgm.o
 .data          0x00000000        0x0 vgm.o
 .bss           0x00000000        0x0 vgm.o
 .text._Z7VgmInitv
                0x00000000       0x18 vgm.o
 .text          0x00000000        0x0 tonc_color.o
 .data          0x00000000        0x0 tonc_color.o
 .bss           0x00000000        0x0 tonc_color.o
 .text.clr_blend
                0x00000000       0x90 tonc_color.o
 .text.clr_fade
                0x00000000       0x88 tonc_color.o
 .text.pal_gradient
                0x00000000       0xcc tonc_color.o
 .text.pal_gradient_ex
                0x00000000       0x20 tonc_color.o
 .text.clr_adj_brightness
                0x00000000       0x60 tonc_color.o
 .text.clr_adj_contrast
                0x00000000       0x80 tonc_color.o
 .text.clr_adj_intensity
                0x00000000       0x78 tonc_color.o
 .text          0x00000000        0x0 tonc_core.bn_iwram.o
 .data          0x00000000        0x0 tonc_core.bn_iwram.o
 .bss           0x00000000        0x0 tonc_core.bn_iwram.o
 .iwram         0x00000000      0x144 tonc_core.bn_iwram.o
 .debug_info    0x00000000      0x1f8 tonc_core.bn_iwram.o
 .debug_abbrev  0x00000000       0xdb tonc_core.bn_iwram.o
 .debug_loc     0x00000000      0x445 tonc_core.bn_iwram.o
 .debug_aranges
                0x00000000       0x20 tonc_core.bn_iwram.o
 .debug_ranges  0x00000000       0x50 tonc_core.bn_iwram.o
 .debug_line    0x00000000      0x2a5 tonc_core.bn_iwram.o
 .debug_str     0x00000000      0x234 tonc_core.bn_iwram.o
 .comment       0x00000000       0x19 tonc_core.bn_iwram.o
 .debug_frame   0x00000000       0x44 tonc_core.bn_iwram.o
 .text          0x00000000        0x0 tonc_sbmp16.o
 .data          0x00000000        0x0 tonc_sbmp16.o
 .bss           0x00000000        0x0 tonc_sbmp16.o
 .text.sbmp16_get_pixel
                0x00000000       0x10 tonc_sbmp16.o
 .text.sbmp16_plot
                0x00000000       0x14 tonc_sbmp16.o
 .text.sbmp16_hline
                0x00000000       0x30 tonc_sbmp16.o
 .text.sbmp16_vline
                0x00000000       0x40 tonc_sbmp16.o
 .text.sbmp16_line
                0x00000000       0xf4 tonc_sbmp16.o
 .text.sbmp16_frame
                0x00000000       0x90 tonc_sbmp16.o
 .text.sbmp16_floodfill_internal
                0x00000000      0x118 tonc_sbmp16.o
 .text.sbmp16_floodfill
                0x00000000       0x30 tonc_sbmp16.o
 .text          0x00000000        0x0 tonc_schr4c.o
 .data          0x00000000        0x0 tonc_schr4c.o
 .bss           0x00000000        0x0 tonc_schr4c.o
 .text.schr4c_prep_map
                0x00000000       0x44 tonc_schr4c.o
 .text.schr4c_get_ptr
                0x00000000       0x10 tonc_schr4c.o
 .text.schr4c_get_pixel
                0x00000000       0x24 tonc_schr4c.o
 .text.schr4c_plot
                0x00000000       0x34 tonc_schr4c.o
 .text.schr4c_hline
                0x00000000       0xdc tonc_schr4c.o
 .text.schr4c_vline
                0x00000000       0x48 tonc_schr4c.o
 .text.schr4c_line
                0x00000000      0x168 tonc_schr4c.o
 .text.schr4c_rect
                0x00000000      0x15c tonc_schr4c.o
 .text.schr4c_frame
                0x00000000       0x94 tonc_schr4c.o
 .text.schr4c_floodfill_internal
                0x00000000      0x154 tonc_schr4c.o
 .text.schr4c_floodfill
                0x00000000       0x34 tonc_schr4c.o
 .debug_info    0x00000000     0x14b1 tonc_schr4c.o
 .debug_abbrev  0x00000000      0x3b7 tonc_schr4c.o
 .debug_loc     0x00000000     0x2250 tonc_schr4c.o
 .debug_aranges
                0x00000000       0x70 tonc_schr4c.o
 .debug_ranges  0x00000000      0x2c0 tonc_schr4c.o
 .debug_line    0x00000000      0xd0a tonc_schr4c.o
 .debug_str     0x00000000      0x37c tonc_schr4c.o
 .comment       0x00000000       0x19 tonc_schr4c.o
 .debug_frame   0x00000000      0x170 tonc_schr4c.o
 .text          0x00000000        0x0 tonc_schr4r.o
 .data          0x00000000        0x0 tonc_schr4r.o
 .bss           0x00000000        0x0 tonc_schr4r.o
 .text.schr4r_prep_map
                0x00000000       0x40 tonc_schr4r.o
 .text.schr4r_get_ptr
                0x00000000       0x20 tonc_schr4r.o
 .text.schr4r_get_pixel
                0x00000000       0x2c tonc_schr4r.o
 .text.schr4r_plot
                0x00000000       0x44 tonc_schr4r.o
 .text.schr4r_hline
                0x00000000       0xbc tonc_schr4r.o
 .text.schr4r_vline
                0x00000000       0x5c tonc_schr4r.o
 .text.schr4r_line
                0x00000000      0x16c tonc_schr4r.o
 .text.schr4r_rect
                0x00000000      0x30c tonc_schr4r.o
 .text.schr4r_frame
                0x00000000       0x94 tonc_schr4r.o
 .debug_info    0x00000000      0xf98 tonc_schr4r.o
 .debug_abbrev  0x00000000      0x33c tonc_schr4r.o
 .debug_loc     0x00000000     0x2033 tonc_schr4r.o
 .debug_aranges
                0x00000000       0x60 tonc_schr4r.o
 .debug_ranges  0x00000000      0x208 tonc_schr4r.o
 .debug_line    0x00000000      0xcb6 tonc_schr4r.o
 .debug_str     0x00000000      0x32d tonc_schr4r.o
 .comment       0x00000000       0x19 tonc_schr4r.o
 .debug_frame   0x00000000      0x134 tonc_schr4r.o
 .text          0x00000000        0x0 tonc_surface.o
 .data          0x00000000        0x0 tonc_surface.o
 .bss           0x00000000        0x0 tonc_surface.o
 .text.srf_init
                0x00000000       0xc0 tonc_surface.o
 .rodata.srf_init
                0x00000000       0x1c tonc_surface.o
 .text.srf_get_ptr
                0x00000000       0x68 tonc_surface.o
 .debug_info    0x00000000      0x481 tonc_surface.o
 .debug_abbrev  0x00000000      0x1eb tonc_surface.o
 .debug_loc     0x00000000      0x592 tonc_surface.o
 .debug_aranges
                0x00000000       0x28 tonc_surface.o
 .debug_ranges  0x00000000       0xb8 tonc_surface.o
 .debug_line    0x00000000      0x473 tonc_surface.o
 .debug_str     0x00000000      0x2b6 tonc_surface.o
 .comment       0x00000000       0x19 tonc_surface.o
 .debug_frame   0x00000000       0x50 tonc_surface.o
 .text          0x00000000        0x0 bmp16_drawg_b1cs.o
 .data          0x00000000        0x0 bmp16_drawg_b1cs.o
 .bss           0x00000000        0x0 bmp16_drawg_b1cs.o
 .text.bmp16_drawg_b1cos
                0x00000000       0xbc bmp16_drawg_b1cs.o
 .text          0x00000000        0x0 tte_init_bmp.o
 .data          0x00000000        0x0 tte_init_bmp.o
 .bss           0x00000000        0x0 tte_init_bmp.o
 .text          0x00000000        0x0 tte_main.o
 .data          0x00000000        0x0 tte_main.o
 .bss           0x00000000        0x0 tte_main.o
 .text.tte_set_context
                0x00000000        0x4 tte_main.o
 .text.tte_set_color_attr
                0x00000000       0x10 tte_main.o
 .text.tte_set_color_attrs
                0x00000000       0x18 tte_main.o
 .text.tte_set_color
                0x00000000       0x1c tte_main.o
 .text.tte_set_colors
                0x00000000       0x3c tte_main.o
 .text.tte_putc
                0x00000000       0x54 tte_main.o
 .text.tte_write_ex
                0x00000000       0x30 tte_main.o
 .text.tte_erase_rect
                0x00000000       0x1c tte_main.o
 .text.tte_erase_screen
                0x00000000       0x24 tte_main.o
 .text.tte_erase_line
                0x00000000       0x2c tte_main.o
 .text          0x00000000        0x0 interrupts_gba.o
 .data          0x00000000        0x0 interrupts_gba.o
 .bss           0x00000000        0x0 interrupts_gba.o
 .text          0x00000000        0x0 coroutine.o
 .data          0x00000000        0x0 coroutine.o
 .bss           0x00000000        0x0 coroutine.o
 .text.__agbabi_coro_make
                0x00000000       0x28 coroutine.o
 .debug_info    0x00000000      0x12b coroutine.o
 .debug_abbrev  0x00000000       0xf0 coroutine.o
 .debug_loc     0x00000000       0x9e coroutine.o
 .debug_aranges
                0x00000000       0x20 coroutine.o
 .debug_ranges  0x00000000       0x10 coroutine.o
 .debug_line    0x00000000      0x129 coroutine.o
 .debug_str     0x00000000      0x1c2 coroutine.o
 .comment       0x00000000       0x19 coroutine.o
 .debug_frame   0x00000000       0x28 coroutine.o
 .text          0x00000000        0x0 rtc.o
 .data          0x00000000        0x0 rtc.o
 .bss           0x00000000        0x0 rtc.o
 .text.rtc_get_status
                0x00000000       0x74 rtc.o
 .text.rtc_set_status_24hr
                0x00000000       0x7c rtc.o
 .text.__agbabi_rtc_time
                0x00000000       0xa4 rtc.o
 .text.__agbabi_rtc_settime
                0x00000000       0xb4 rtc.o
 .text.__agbabi_rtc_datetime
                0x00000000       0xdc rtc.o
 .text.__agbabi_rtc_init
                0x00000000       0xbc rtc.o
 .text.__agbabi_rtc_setdatetime
                0x00000000       0xf4 rtc.o
 .debug_info    0x00000000      0xbab rtc.o
 .debug_abbrev  0x00000000      0x2dc rtc.o
 .debug_loc     0x00000000      0xc17 rtc.o
 .debug_aranges
                0x00000000       0x50 rtc.o
 .debug_ranges  0x00000000      0x248 rtc.o
 .debug_line    0x00000000      0xb53 rtc.o
 .debug_str     0x00000000      0x2d6 rtc.o
 .comment       0x00000000       0x19 rtc.o
 .debug_frame   0x00000000       0xf8 rtc.o
 .text          0x00000000        0x0 effect.o
 .data          0x00000000        0x0 effect.o
 .bss           0x00000000        0x0 effect.o
 .text.mmEffectVolume
                0x00000000       0x40 effect.o
 .text.mmEffectRate
                0x00000000       0x34 effect.o
 .text          0x00000000        0x0 mas.o
 .data          0x00000000        0x0 mas.o
 .bss           0x00000000        0x0 mas.o
 .text.mmGetPositionTick
                0x00000000        0xc mas.o
 .text.mmGetPositionRow
                0x00000000        0xc mas.o
 .text.mmPlayModule
                0x00000000       0x10 mas.o
 .text          0x00000000        0x0 mas_arm.o
 .data          0x00000000        0x0 mas_arm.o
 .bss           0x00000000        0x0 mas_arm.o
 .text          0x00000000        0x0 main_gba.o
 .data          0x00000000        0x0 main_gba.o
 .bss           0x00000000        0x0 main_gba.o
 .text.mmInitDefault
                0x00000000       0x78 main_gba.o
 .bss.mixbuffer
                0x00000000      0x420 main_gba.o
 .text          0x00000000        0x0 mixer.o
 .data          0x00000000        0x0 mixer.o
 .bss           0x00000000        0x0 mixer.o
 .text.mmMixerSetVolume
                0x00000000       0x10 mixer.o
 .text.mmMixerSetRead
                0x00000000       0x10 mixer.o
 .text.mmMixerSetFreq
                0x00000000       0x14 mixer.o
 .text.mmSetVBlankHandler
                0x00000000        0xc mixer.o
 .text          0x00000000        0x0 gbt_player.o
 .data          0x00000000        0x0 gbt_player.o
 .bss           0x00000000        0x0 gbt_player.o
 .text.gbt_set_event_callback_handler
                0x00000000        0xc gbt_player.o
 .text.gbt_enable_channels
                0x00000000       0x10 gbt_player.o
 .text.gbt_get_position
                0x00000000       0x4c gbt_player.o
 .text          0x00000000        0x0 bn_hw_bg_blocks.o
 .data          0x00000000        0x0 bn_hw_bg_blocks.o
 .bss           0x00000000        0x0 bn_hw_bg_blocks.o
 .text          0x00000000       0x1c bn_hw_core.o
 .data          0x00000000        0x0 bn_hw_core.o
 .bss           0x00000000        0x0 bn_hw_core.o
 .debug_line    0x00000000       0x82 bn_hw_core.o
 .debug_info    0x00000000       0x23 bn_hw_core.o
 .debug_abbrev  0x00000000       0x14 bn_hw_core.o
 .debug_aranges
                0x00000000       0x20 bn_hw_core.o
 .debug_str     0x00000000       0x87 bn_hw_core.o
 .text          0x00000000        0x0 bn_hw_hblank_effects.o
 .data          0x00000000        0x0 bn_hw_hblank_effects.o
 .bss           0x00000000        0x0 bn_hw_hblank_effects.o
 .text          0x00000000        0x0 bn_hw_palettes_asm.o
 .data          0x00000000        0x0 bn_hw_palettes_asm.o
 .bss           0x00000000        0x0 bn_hw_palettes_asm.o
 .text          0x00000000        0x0 clr_blend_fast.o
 .data          0x00000000        0x0 clr_blend_fast.o
 .bss           0x00000000        0x0 clr_blend_fast.o
 .text          0x00000000        0x0 clr_fade_fast.o
 .data          0x00000000        0x0 clr_fade_fast.o
 .bss           0x00000000        0x0 clr_fade_fast.o
 .data          0x00000000        0x0 tonc_bios.o
 .bss           0x00000000        0x0 tonc_bios.o
 .data          0x00000000        0x0 tonc_memset.o
 .bss           0x00000000        0x0 tonc_memset.o
 .text          0x00000000       0x38 tonc_nocash.o
 .data          0x00000000        0x0 tonc_nocash.o
 .bss           0x00000000        0x0 tonc_nocash.o
 .ewram         0x00000000       0x5c tonc_nocash.o
 .debug_line    0x00000000       0xb5 tonc_nocash.o
 .debug_info    0x00000000       0x3a tonc_nocash.o
 .debug_abbrev  0x00000000       0x26 tonc_nocash.o
 .debug_aranges
                0x00000000       0x28 tonc_nocash.o
 .debug_str     0x00000000       0xb5 tonc_nocash.o
 .debug_ranges  0x00000000       0x20 tonc_nocash.o
 .text          0x00000000        0x0 verdana9.o
 .data          0x00000000        0x0 verdana9.o
 .bss           0x00000000        0x0 verdana9.o
 .text          0x00000000        0x0 irq_handler.o
 .data          0x00000000        0x0 irq_handler.o
 .bss           0x00000000        0x0 irq_handler.o
 .data          0x00000000        0x0 posprintf.o
 .bss           0x00000000        0x0 posprintf.o
 .text          0x00000000        0x0 atan2.o
 .data          0x00000000        0x0 atan2.o
 .bss           0x00000000        0x0 atan2.o
 .iwram.__agbabi_atan2
                0x00000000       0xd4 atan2.o
 .debug_line    0x00000000       0xb5 atan2.o
 .debug_info    0x00000000       0x24 atan2.o
 .debug_abbrev  0x00000000       0x14 atan2.o
 .debug_aranges
                0x00000000       0x20 atan2.o
 .debug_str     0x00000000       0x93 atan2.o
 .text          0x00000000        0x0 coroutine_asm.o
 .data          0x00000000        0x0 coroutine_asm.o
 .bss           0x00000000        0x0 coroutine_asm.o
 .iwram.__agbabi_coro_resume
                0x00000000       0x20 coroutine_asm.o
 .iwram.__agbabi_coro_yield
                0x00000000       0x1c coroutine_asm.o
 .iwram.__agbabi_coro_pop
                0x00000000       0x34 coroutine_asm.o
 .debug_line    0x00000000       0xc2 coroutine_asm.o
 .debug_info    0x00000000       0x22 coroutine_asm.o
 .debug_abbrev  0x00000000       0x12 coroutine_asm.o
 .debug_aranges
                0x00000000       0x30 coroutine_asm.o
 .debug_str     0x00000000       0x9b coroutine_asm.o
 .debug_ranges  0x00000000       0x28 coroutine_asm.o
 .text          0x00000000        0x0 fiq_memcpy.o
 .data          0x00000000        0x0 fiq_memcpy.o
 .bss           0x00000000        0x0 fiq_memcpy.o
 .iwram.__agbabi_fiq_memcpy4
                0x00000000       0x70 fiq_memcpy.o
 .iwram.__agbabi_fiq_memcpy4x4
                0x00000000       0x54 fiq_memcpy.o
 .debug_line    0x00000000       0xc5 fiq_memcpy.o
 .debug_info    0x00000000       0x22 fiq_memcpy.o
 .debug_abbrev  0x00000000       0x12 fiq_memcpy.o
 .debug_aranges
                0x00000000       0x28 fiq_memcpy.o
 .debug_str     0x00000000       0x98 fiq_memcpy.o
 .debug_ranges  0x00000000       0x20 fiq_memcpy.o
 .text          0x00000000        0x0 lmul.o
 .data          0x00000000        0x0 lmul.o
 .bss           0x00000000        0x0 lmul.o
 .iwram.__aeabi_llsr
                0x00000000       0x1c lmul.o
 .iwram.__aeabi_lasr
                0x00000000       0x1c lmul.o
 .text          0x00000000        0x0 memcpy.o
 .data          0x00000000        0x0 memcpy.o
 .bss           0x00000000        0x0 memcpy.o
 .text          0x00000000        0x0 memmove.o
 .data          0x00000000        0x0 memmove.o
 .bss           0x00000000        0x0 memmove.o
 .iwram.__aeabi_memmove8
                0x00000000        0xc memmove.o
 .iwram.__agbabi_memmove1
                0x00000000        0xc memmove.o
 .text          0x00000000        0x0 memset.o
 .data          0x00000000        0x0 memset.o
 .bss           0x00000000        0x0 memset.o
 .iwram.__aeabi_memclr
                0x00000000       0x10 memset.o
 .text          0x00000000        0x0 rmemcpy.o
 .data          0x00000000        0x0 rmemcpy.o
 .bss           0x00000000        0x0 rmemcpy.o
 .text          0x00000000        0x0 clz.o
 .data          0x00000000        0x0 clz.o
 .bss           0x00000000        0x0 clz.o
 .iwram         0x00000000      0x148 clz.o
 .debug_line    0x00000000       0x97 clz.o
 .debug_info    0x00000000       0x24 clz.o
 .debug_abbrev  0x00000000       0x14 clz.o
 .debug_aranges
                0x00000000       0x20 clz.o
 .debug_str     0x00000000       0x95 clz.o
 .text          0x00000000        0x0 sdiv32.o
 .data          0x00000000        0x0 sdiv32.o
 .bss           0x00000000        0x0 sdiv32.o
 .text          0x00000000        0x0 sqrt32.o
 .data          0x00000000        0x0 sqrt32.o
 .bss           0x00000000        0x0 sqrt32.o
 .iwram         0x00000000       0xec sqrt32.o
 .debug_line    0x00000000       0xc0 sqrt32.o
 .debug_info    0x00000000       0x24 sqrt32.o
 .debug_abbrev  0x00000000       0x14 sqrt32.o
 .debug_aranges
                0x00000000       0x20 sqrt32.o
 .debug_str     0x00000000       0x98 sqrt32.o
 .text          0x00000000        0x0 udiv32.o
 .data          0x00000000        0x0 udiv32.o
 .bss           0x00000000        0x0 udiv32.o
 .text          0x00000000        0x0 lz77.o
 .data          0x00000000        0x0 lz77.o
 .bss           0x00000000        0x0 lz77.o
 .text          0x00000000        0x0 running_length.o
 .data          0x00000000        0x0 running_length.o
 .bss           0x00000000        0x0 running_length.o
 .text          0x00000000        0x0 mixer_asm.o
 .data          0x00000000        0x0 mixer_asm.o
 .text          0x00000000       0xd4 C:/devkitPro/devkitARM/bin/../lib/gcc/arm-none-eabi/15.2.0/thumb\libgcc.a(_aeabi_ldivmod.o)
 .data          0x00000000        0x0 C:/devkitPro/devkitARM/bin/../lib/gcc/arm-none-eabi/15.2.0/thumb\libgcc.a(_aeabi_ldivmod.o)
 .bss           0x00000000        0x0 C:/devkitPro/devkitARM/bin/../lib/gcc/arm-none-eabi/15.2.0/thumb\libgcc.a(_aeabi_ldivmod.o)
 .debug_line    0x00000000       0x6c C:/devkitPro/devkitARM/bin/../lib/gcc/arm-none-eabi/15.2.0/thumb\libgcc.a(_aeabi_ldivmod.o)
 .debug_line_str
                0x00000000       0xc9 C:/devkitPro/devkitARM/bin/../lib/gcc/arm-none-eabi/15.2.0/thumb\libgcc.a(_aeabi_ldivmod.o)
 .debug_info    0x00000000       0x25 C:/devkitPro/devkitARM/bin/../lib/gcc/arm-none-eabi/15.2.0/thumb\libgcc.a(_aeabi_ldivmod.o)
 .debug_abbrev  0x00000000       0x14 C:/devkitPro/devkitARM/bin/../lib/gcc/arm-none-eabi/15.2.0/thumb\libgcc.a(_aeabi_ldivmod.o)
 .debug_aranges
                0x00000000       0x20 C:/devkitPro/devkitARM/bin/../lib/gcc/arm-none-eabi/15.2.0/thumb\libgcc.a(_aeabi_ldivmod.o)
 .debug_str     0x00000000       0xd7 C:/devkitPro/devkitARM/bin/../lib/gcc/arm-none-eabi/15.2.0/thumb\libgcc.a(_aeabi_ldivmod.o)
 .debug_frame   0x00000000       0x44 C:/devkitPro/devkitARM/bin/../lib/gcc/arm-none-eabi/15.2.0/thumb\libgcc.a(_aeabi_ldivmod.o)
 .text          0x00000000       0x3c C:/devkitPro/devkitARM/bin/../lib/gcc/arm-none-eabi/15.2.0/thumb\libgcc.a(_aeabi_uldivmod.o)
 .data          0x00000000        0x0 C:/devkitPro/devkitARM/bin/../lib/gcc/arm-none-eabi/15.2.0/thumb\libgcc.a(_aeabi_uldivmod.o)
 .bss           0x00000000        0x0 C:/devkitPro/devkitARM/bin/../lib/gcc/arm-none-eabi/15.2.0/thumb\libgcc.a(_aeabi_uldivmod.o)
 .debug_line    0x00000000       0x4e C:/devkitPro/devkitARM/bin/../lib/gcc/arm-none-eabi/15.2.0/thumb\libgcc.a(_aeabi_uldivmod.o)
 .debug_line_str
                0x00000000       0xc9 C:/devkitPro/devkitARM/bin/../lib/gcc/arm-none-eabi/15.2.0/thumb\libgcc.a(_aeabi_uldivmod.o)
 .debug_info    0x00000000       0x24 C:/devkitPro/devkitARM/bin/../lib/gcc/arm-none-eabi/15.2.0/thumb\libgcc.a(_aeabi_uldivmod.o)
 .debug_abbrev  0x00000000       0x14 C:/devkitPro/devkitARM/bin/../lib/gcc/arm-none-eabi/15.2.0/thumb\libgcc.a(_aeabi_uldivmod.o)
 .debug_aranges
                0x00000000       0x20 C:/devkitPro/devkitARM/bin/../lib/gcc/arm-none-eabi/15.2.0/thumb\libgcc.a(_aeabi_uldivmod.o)
 .debug_str     0x00000000       0xd7 C:/devkitPro/devkitARM/bin/../lib/gcc/arm-none-eabi/15.2.0/thumb\libgcc.a(_aeabi_uldivmod.o)
 .debug_frame   0x00000000       0x2c C:/devkitPro/devkitARM/bin/../lib/gcc/arm-none-eabi/15.2.0/thumb\libgcc.a(_aeabi_uldivmod.o)
 .text          0x00000000        0x4 C:/devkitPro/devkitARM/bin/../lib/gcc/arm-none-eabi/15.2.0/thumb\libgcc.a(_sync_none.o)
 .data          0x00000000        0x0 C:/devkitPro/devkitARM/bin/../lib/gcc/arm-none-eabi/15.2.0/thumb\libgcc.a(_sync_none.o)
 .bss           0x00000000        0x0 C:/devkitPro/devkitARM/bin/../lib/gcc/arm-none-eabi/15.2.0/thumb\libgcc.a(_sync_none.o)
 .debug_line    0x00000000       0x4a C:/devkitPro/devkitARM/bin/../lib/gcc/arm-none-eabi/15.2.0/thumb\libgcc.a(_sync_none.o)
 .debug_line_str
                0x00000000       0xcd C:/devkitPro/devkitARM/bin/../lib/gcc/arm-none-eabi/15.2.0/thumb\libgcc.a(_sync_none.o)
 .debug_info    0x00000000       0x31 C:/devkitPro/devkitARM/bin/../lib/gcc/arm-none-eabi/15.2.0/thumb\libgcc.a(_sync_none.o)
 .debug_abbrev  0x00000000       0x28 C:/devkitPro/devkitARM/bin/../lib/gcc/arm-none-eabi/15.2.0/thumb\libgcc.a(_sync_none.o)
 .debug_aranges
                0x00000000       0x20 C:/devkitPro/devkitARM/bin/../lib/gcc/arm-none-eabi/15.2.0/thumb\libgcc.a(_sync_none.o)
 .debug_str     0x00000000       0xf3 C:/devkitPro/devkitARM/bin/../lib/gcc/arm-none-eabi/15.2.0/thumb\libgcc.a(_sync_none.o)
 .text          0x00000000        0x0 C:/devkitPro/devkitARM/bin/../lib/gcc/arm-none-eabi/15.2.0/thumb\libgcc.a(_udivmoddi4.o)
 .data          0x00000000        0x0 C:/devkitPro/devkitARM/bin/../lib/gcc/arm-none-eabi/15.2.0/thumb\libgcc.a(_udivmoddi4.o)
 .bss           0x00000000        0x0 C:/devkitPro/devkitARM/bin/../lib/gcc/arm-none-eabi/15.2.0/thumb\libgcc.a(_udivmoddi4.o)
 .text.__udivmoddi4
                0x00000000      0x194 C:/devkitPro/devkitARM/bin/../lib/gcc/arm-none-eabi/15.2.0/thumb\libgcc.a(_udivmoddi4.o)
 .debug_info    0x00000000      0x3b6 C:/devkitPro/devkitARM/bin/../lib/gcc/arm-none-eabi/15.2.0/thumb\libgcc.a(_udivmoddi4.o)
 .debug_abbrev  0x00000000      0x126 C:/devkitPro/devkitARM/bin/../lib/gcc/arm-none-eabi/15.2.0/thumb\libgcc.a(_udivmoddi4.o)
 .debug_loclists
                0x00000000      0x2a9 C:/devkitPro/devkitARM/bin/../lib/gcc/arm-none-eabi/15.2.0/thumb\libgcc.a(_udivmoddi4.o)
 .debug_aranges
                0x00000000       0x20 C:/devkitPro/devkitARM/bin/../lib/gcc/arm-none-eabi/15.2.0/thumb\libgcc.a(_udivmoddi4.o)
 .debug_rnglists
                0x00000000       0x14 C:/devkitPro/devkitARM/bin/../lib/gcc/arm-none-eabi/15.2.0/thumb\libgcc.a(_udivmoddi4.o)
 .debug_line    0x00000000      0x1e7 C:/devkitPro/devkitARM/bin/../lib/gcc/arm-none-eabi/15.2.0/thumb\libgcc.a(_udivmoddi4.o)
 .debug_str     0x00000000      0x6a5 C:/devkitPro/devkitARM/bin/../lib/gcc/arm-none-eabi/15.2.0/thumb\libgcc.a(_udivmoddi4.o)
 .comment       0x00000000       0x19 C:/devkitPro/devkitARM/bin/../lib/gcc/arm-none-eabi/15.2.0/thumb\libgcc.a(_udivmoddi4.o)
 .debug_frame   0x00000000       0x3c C:/devkitPro/devkitARM/bin/../lib/gcc/arm-none-eabi/15.2.0/thumb\libgcc.a(_udivmoddi4.o)
 .text          0x00000000        0x0 C:/devkitPro/devkitARM/bin/../lib/gcc/arm-none-eabi/15.2.0/thumb/crtend.o
 .data          0x00000000        0x0 C:/devkitPro/devkitARM/bin/../lib/gcc/arm-none-eabi/15.2.0/thumb/crtend.o
 .bss           0x00000000        0x0 C:/devkitPro/devkitARM/bin/../lib/gcc/arm-none-eabi/15.2.0/thumb/crtend.o
 .rodata.all_implied_fbits
                0x00000000       0x24 C:/devkitPro/devkitARM/bin/../lib/gcc/arm-none-eabi/15.2.0/thumb/crtend.o
 .text          0x00000000        0x0 C:/devkitPro/devkitARM/bin/../lib/gcc/arm-none-eabi/15.2.0/thumb/crtn.o
 .data          0x00000000        0x0 C:/devkitPro/devkitARM/bin/../lib/gcc/arm-none-eabi/15.2.0/thumb/crtn.o
 .bss           0x00000000        0x0 C:/devkitPro/devkitARM/bin/../lib/gcc/arm-none-eabi/15.2.0/thumb/crtn.o

Memory Configuration

Name             Origin             Length             Attributes
rom              0x08000000         0x02000000
iwram            0x03000000         0x00008000
ewram            0x02000000         0x00040000
*default*        0x00000000         0xffffffff

Linker script and memory map

                0x00000000                        __sync_synchronize = __sync_synchronize_none
                0x08000000                        __text_start = ORIGIN (rom)
                0x02040000                        __eheap_end = (ORIGIN (ewram) + LENGTH (ewram))
                0x03000000                        __iwram_start = ORIGIN (iwram)
                0x03008000                        __iwram_top = (ORIGIN (iwram) + LENGTH (iwram))
                0x03007fa0                        __sp_irq = (__iwram_top - 0x60)
                0x03007f00                        __sp_usr = (__sp_irq - 0xa0)
                0x03007ff8                        __irq_flags = 0x3007ff8
                0x08000000                        . = __text_start

.crt0           0x08000000      0x210
 *(.crt0)
 .crt0          0x08000000      0x210 C:/devkitPro/devkitARM/bin/../lib/gcc/arm-none-eabi/15.2.0/../../../../arm-none-eabi/lib/thumb/gba_crt0.o
                0x08000000                _start
                0x080000c4                __boot_method
                0x080000c5                __slave_number
                0x080000e0                start_vector
                0x08000210                        . = ALIGN (0x4)

.init           0x08000210        0xc
 *(SORT_NONE(.init))
 .init          0x08000210        0x4 C:/devkitPro/devkitARM/bin/../lib/gcc/arm-none-eabi/15.2.0/thumb/crti.o
                0x08000210                _init
 .init          0x08000214        0x8 C:/devkitPro/devkitARM/bin/../lib/gcc/arm-none-eabi/15.2.0/thumb/crtn.o

.plt            0x0800021c        0x0
 *(.plt)
                0x0800021c                        . = ALIGN (0x4)

.text           0x08000220    0x16850
 *(EXCLUDE_FILE(*.iwram*) .text*)
 .text.__do_global_dtors_aux
                0x08000220       0x2c C:/devkitPro/devkitARM/bin/../lib/gcc/arm-none-eabi/15.2.0/thumb/crtbegin.o
 .text.frame_dummy
                0x0800024c       0x24 C:/devkitPro/devkitARM/bin/../lib/gcc/arm-none-eabi/15.2.0/thumb/crtbegin.o
 .text._ZN12_GLOBAL__N_1L7vm_getcEPv
                0x08000270       0x20 main.o
 .text._ZN3_bn6assert9show_argsIJA19_ciA4_ciEEEvPKcS5_S5_iDpRKT_
                0x08000290       0x64 main.o
                0x08000290                _ZN3_bn6assert9show_argsIJA19_ciA4_ciEEEvPKcS5_S5_iDpRKT_
 .text._ZN3_bn6assert9show_argsIJA16_ciA4_ciEEEvPKcS5_S5_iDpRKT_
                0x080002f4       0x64 main.o
                0x080002f4                _ZN3_bn6assert9show_argsIJA16_ciA4_ciEEEvPKcS5_S5_iDpRKT_
 .text._ZN3_bn6assert9show_argsIA15_cEEvPKcS4_S4_iRKT_
                0x08000358       0x48 main.o
                0x08000358                _ZN3_bn6assert9show_argsIA15_cEEvPKcS4_S4_iRKT_
 .text._ZN12_GLOBAL__N_1L7vm_putcEiPv
                0x080003a0       0x24 main.o
 .text.startup.main
                0x080003c4      0xa88 main.o
                0x080003c4                main
 .text._ZN3_bn6assert9show_argsIA24_ciEEvPKcS4_S4_iRKT_RKT0_
                0x08000e4c       0x54 bn_affine_bg_animate_actions.o
                0x08000e4c                _ZN3_bn6assert9show_argsIA24_ciEEvPKcS4_S4_iRKT_RKT0_
 .text._ZN3_bn6assert9show_argsIA28_ciEEvPKcS4_S4_iRKT_RKT0_
                0x08000ea0       0x54 bn_affine_bg_animate_actions.o
                0x08000ea0                _ZN3_bn6assert9show_argsIA28_ciEEvPKcS4_S4_iRKT_RKT0_
 .text._ZN2bn13audio_manager4initEv
                0x08000ef4       0x60 bn_audio_manager.bn_noflto.o
                0x08000ef4                _ZN2bn13audio_manager4initEv
 .text._ZN2bn13audio_manager7disableEv
                0x08000f54       0x10 bn_audio_manager.bn_noflto.o
                0x08000f54                _ZN2bn13audio_manager7disableEv
 .text._ZN2bn13audio_manager10sound_dataEt
                0x08000f64       0x6c bn_audio_manager.bn_noflto.o
                0x08000f64                _ZN2bn13audio_manager10sound_dataEt
 .text._ZN2bn13audio_manager6updateEv
                0x08000fd0       0x18 bn_audio_manager.bn_noflto.o
                0x08000fd0                _ZN2bn13audio_manager6updateEv
 .text._ZN2bn13audio_manager13vblank_commitEv
                0x08000fe8       0x2c bn_audio_manager.bn_noflto.o
                0x08000fe8                _ZN2bn13audio_manager13vblank_commitEv
 .text._ZN2bn13audio_manager14delayed_commitEv
                0x08001014       0x34 bn_audio_manager.bn_noflto.o
                0x08001014                _ZN2bn13audio_manager14delayed_commitEv
 .text._ZN2bn13audio_manager4stopEv
                0x08001048       0x78 bn_audio_manager.bn_noflto.o
                0x08001048                _ZN2bn13audio_manager4stopEv
 .text._ZN3_bn6assert9show_argsIA18_ciEEvPKcS4_S4_iRKT_RKT0_
                0x080010c0       0x54 bn_audio_manager.bn_noflto.o
                0x080010c0                _ZN3_bn6assert9show_argsIA18_ciEEvPKcS4_S4_iRKT_RKT0_
 .text._ZN3_bn6assert9show_argsIA14_ciEEvPKcS4_S4_iRKT_RKT0_
                0x08001114       0x54 bn_audio_manager.bn_noflto.o
                0x08001114                _ZN3_bn6assert9show_argsIA14_ciEEvPKcS4_S4_iRKT_RKT0_
 .text._ZN3_bn6assert9show_argsIA26_ciEEvPKcS4_S4_iRKT_RKT0_
                0x08001168       0x54 bn_audio_manager.bn_noflto.o
                0x08001168                _ZN3_bn6assert9show_argsIA26_ciEEvPKcS4_S4_iRKT_RKT0_
 .text._ZN3_bn6assert9show_argsIA33_cEEvPKcS4_S4_iRKT_
                0x080011bc       0x48 bn_audio_manager.bn_noflto.o
                0x080011bc                _ZN3_bn6assert9show_argsIA33_cEEvPKcS4_S4_iRKT_
 .text._ZN3_bn6assert9show_argsIA25_cEEvPKcS4_S4_iRKT_
                0x08001204       0x48 bn_audio_manager.bn_noflto.o
                0x08001204                _ZN3_bn6assert9show_argsIA25_cEEvPKcS4_S4_iRKT_
 .text._ZN3_bn6assert9show_argsIA24_cEEvPKcS4_S4_iRKT_
                0x0800124c       0x48 bn_audio_manager.bn_noflto.o
                0x0800124c                _ZN3_bn6assert9show_argsIA24_cEEvPKcS4_S4_iRKT_
 .text._ZN3_bn6assert9show_argsIA20_cEEvPKcS4_S4_iRKT_
                0x08001294       0x48 bn_audio_manager.bn_noflto.o
                0x08001294                _ZN3_bn6assert9show_argsIA20_cEEvPKcS4_S4_iRKT_
 .text._ZN3_bn6assert9show_argsIA26_cEEvPKcS4_S4_iRKT_
                0x080012dc       0x48 bn_audio_manager.bn_noflto.o
                0x080012dc                _ZN3_bn6assert9show_argsIA26_cEEvPKcS4_S4_iRKT_
 .text._ZN3_bn6assert9show_argsIA21_cEEvPKcS4_S4_iRKT_
                0x08001324       0x48 bn_audio_manager.bn_noflto.o
                0x08001324                _ZN3_bn6assert9show_argsIA21_cEEvPKcS4_S4_iRKT_
 .text._ZN3_bn6assert9show_argsIA22_cEEvPKcS4_S4_iRKT_
                0x0800136c       0x48 bn_audio_manager.bn_noflto.o
                0x0800136c                _ZN3_bn6assert9show_argsIA22_cEEvPKcS4_S4_iRKT_
 .text._ZN3_bn6assert9show_argsIA25_ciEEvPKcS4_S4_iRKT_RKT0_
                0x080013b4       0x54 bn_audio_manager.bn_noflto.o
                0x080013b4                _ZN3_bn6assert9show_argsIA25_ciEEvPKcS4_S4_iRKT_RKT0_
 .text._ZN2bn13audio_manager16execute_commandsEv
                0x08001408      0x788 bn_audio_manager.bn_noflto.o
                0x08001408                _ZN2bn13audio_manager16execute_commandsEv
 .text._ZN3_bn6assert9show_argsIA17_cEEvPKcS4_S4_iRKT_
                0x08001b90       0x48 bn_audio_manager.bn_noflto.o
                0x08001b90                _ZN3_bn6assert9show_argsIA17_cEEvPKcS4_S4_iRKT_
 .text._ZN2bn18best_fit_allocator4freeEPv
                0x08001bd8      0x110 bn_best_fit_allocator.o
                0x08001bd8                _ZN2bn18best_fit_allocator4freeEPv
 .text._ZN3_bn6assert9show_argsIA23_cEEvPKcS4_S4_iRKT_
                0x08001ce8       0x48 bn_best_fit_allocator.o
                0x08001ce8                _ZN3_bn6assert9show_argsIA23_cEEvPKcS4_S4_iRKT_
 .text._ZN3_bn6assert9show_argsIA16_ciEEvPKcS4_S4_iRKT_RKT0_
                0x08001d30       0x54 bn_best_fit_allocator.o
                0x08001d30                _ZN3_bn6assert9show_argsIA16_ciEEvPKcS4_S4_iRKT_RKT0_
 .text._ZN3_bn6assert9show_argsIA20_ciEEvPKcS4_S4_iRKT_RKT0_
                0x08001d84       0x54 bn_best_fit_allocator.o
                0x08001d84                _ZN3_bn6assert9show_argsIA20_ciEEvPKcS4_S4_iRKT_RKT0_
 .text._ZN3_bn6assert9show_argsIA14_cEEvPKcS4_S4_iRKT_
                0x08001dd8       0x48 bn_best_fit_allocator.o
                0x08001dd8                _ZN3_bn6assert9show_argsIA14_cEEvPKcS4_S4_iRKT_
 .text._ZN2bn18best_fit_allocator5resetEPvi
                0x08001e20       0xd4 bn_best_fit_allocator.o
                0x08001e20                _ZN2bn18best_fit_allocator5resetEPvi
 .text._ZN2bn17bg_blocks_manager12_GLOBAL__N_1L17_hw_commit_offsetEPKtjtPt
                0x08001ef4       0x74 bn_bg_blocks_manager.o
 .text._ZN2bn13ostringstream11append_argsIiJA4_ctEEEvRKT_DpRKT0_.isra.0
                0x08001f68       0x24 bn_bg_blocks_manager.o
 .text._ZN2bn13ostringstream11append_argsIiJA4_ciEEEvRKT_DpRKT0_.isra.0
                0x08001f8c       0x24 bn_bg_blocks_manager.o
 .text._ZNK2bn18regular_bg_map_ptr2idEv
                0x08001fb0       0x18 bn_bg_blocks_manager.o
                0x08001fb0                _ZNK2bn18regular_bg_map_ptr2idEv
 .text._ZNK2bn18regular_bg_map_ptr10dimensionsEv
                0x08001fc8       0x20 bn_bg_blocks_manager.o
                0x08001fc8                _ZNK2bn18regular_bg_map_ptr10dimensionsEv
 .text._ZNK2bn18regular_bg_map_ptr3bigEv
                0x08001fe8       0x18 bn_bg_blocks_manager.o
                0x08001fe8                _ZNK2bn18regular_bg_map_ptr3bigEv
 .text._ZNK2bn20regular_bg_tiles_ptr3cbbEv
                0x08002000       0x18 bn_bg_blocks_manager.o
                0x08002000                _ZNK2bn20regular_bg_tiles_ptr3cbbEv
 .text._ZNK2bn17affine_bg_map_ptr2idEv
                0x08002018       0x18 bn_bg_blocks_manager.o
                0x08002018                _ZNK2bn17affine_bg_map_ptr2idEv
 .text._ZNK2bn17affine_bg_map_ptr10dimensionsEv
                0x08002030       0x20 bn_bg_blocks_manager.o
                0x08002030                _ZNK2bn17affine_bg_map_ptr10dimensionsEv
 .text._ZNK2bn19affine_bg_tiles_ptr3cbbEv
                0x08002050       0x18 bn_bg_blocks_manager.o
                0x08002050                _ZNK2bn19affine_bg_tiles_ptr3cbbEv
 .text._ZN2bn17bg_blocks_manager10log_statusEv
                0x08002068      0x450 bn_bg_blocks_manager.o
                0x08002068                _ZN2bn17bg_blocks_manager10log_statusEv
 .text._ZN2bn17bg_blocks_manager15decrease_usagesEi
                0x080024b8       0x98 bn_bg_blocks_manager.o
                0x080024b8                _ZN2bn17bg_blocks_manager15decrease_usagesEi
 .text._ZN2bn18regular_bg_map_ptrD2Ev
                0x08002550       0x18 bn_bg_blocks_manager.o
                0x08002550                _ZN2bn18regular_bg_map_ptrD1Ev
                0x08002550                _ZN2bn18regular_bg_map_ptrD2Ev
 .text._ZN2bn17bg_blocks_manager12_GLOBAL__N_110items_list12insert_afterEiRKNS1_9item_typeE.constprop.0
                0x08002568      0x268 bn_bg_blocks_manager.o
 .text._ZN2bn17bg_blocks_manager4initEv
                0x080027d0       0x90 bn_bg_blocks_manager.o
                0x080027d0                _ZN2bn17bg_blocks_manager4initEv
 .text._ZN2bn17bg_blocks_manager11must_commitEi
                0x08002860       0x18 bn_bg_blocks_manager.o
                0x08002860                _ZN2bn17bg_blocks_manager11must_commitEi
 .text._ZN2bn17bg_blocks_manager6updateEv
                0x08002878      0x260 bn_bg_blocks_manager.o
                0x08002878                _ZN2bn17bg_blocks_manager6updateEv
 .text._ZN3_bn6assert9show_argsIA15_ciEEvPKcS4_S4_iRKT_RKT0_
                0x08002ad8       0x54 bn_bg_blocks_manager.o
                0x08002ad8                _ZN3_bn6assert9show_argsIA15_ciEEvPKcS4_S4_iRKT_RKT0_
 .text._ZN3_bn6assert9show_argsIA52_ctEEvPKcS4_S4_iRKT_RKT0_
                0x08002b2c       0x54 bn_bg_blocks_manager.o
                0x08002b2c                _ZN3_bn6assert9show_argsIA52_ctEEvPKcS4_S4_iRKT_RKT0_
 .text._ZN3_bn6assert9show_argsIJA20_ciA4_ctEEEvPKcS5_S5_iDpRKT_
                0x08002b80       0x58 bn_bg_blocks_manager.o
                0x08002b80                _ZN3_bn6assert9show_argsIJA20_ciA4_ctEEEvPKcS5_S5_iDpRKT_
 .text._ZN3_bn6assert9show_argsIJA22_ciA4_ciEEEvPKcS5_S5_iDpRKT_
                0x08002bd8       0x58 bn_bg_blocks_manager.o
                0x08002bd8                _ZN3_bn6assert9show_argsIJA22_ciA4_ciEEEvPKcS5_S5_iDpRKT_
 .text._ZN3_bn6assert9show_argsIJA58_ciA4_ciEEEvPKcS5_S5_iDpRKT_
                0x08002c30       0x58 bn_bg_blocks_manager.o
                0x08002c30                _ZN3_bn6assert9show_argsIJA58_ciA4_ciEEEvPKcS5_S5_iDpRKT_
 .text._ZN3_bn6assert9show_argsIA38_cEEvPKcS4_S4_iRKT_
                0x08002c88       0x48 bn_bg_blocks_manager.o
                0x08002c88                _ZN3_bn6assert9show_argsIA38_cEEvPKcS4_S4_iRKT_
 .text._ZN3_bn6assert9show_argsIA27_ciEEvPKcS4_S4_iRKT_RKT0_
                0x08002cd0       0x54 bn_bg_blocks_manager.o
                0x08002cd0                _ZN3_bn6assert9show_argsIA27_ciEEvPKcS4_S4_iRKT_RKT0_
 .text._ZN2bn17bg_blocks_manager12_GLOBAL__N_1L10_hw_commitEPKtNS_16compression_typeEibPt
                0x08002d24       0x68 bn_bg_blocks_manager.o
 .text._ZN3_bn6assert9show_argsIA22_ciEEvPKcS4_S4_iRKT_RKT0_
                0x08002d8c       0x54 bn_bg_blocks_manager.o
                0x08002d8c                _ZN3_bn6assert9show_argsIA22_ciEEvPKcS4_S4_iRKT_RKT0_
 .text._ZN3_bn6assert9show_argsIA19_cEEvPKcS4_S4_iRKT_
                0x08002de0       0x48 bn_bg_blocks_manager.o
                0x08002de0                _ZN3_bn6assert9show_argsIA19_cEEvPKcS4_S4_iRKT_
 .text._ZN2bn17bg_blocks_manager12_GLOBAL__N_1L16_find_tiles_implEPKtNS_16compression_typeEib
                0x08002e28       0xf4 bn_bg_blocks_manager.o
 .text._ZN2bn17bg_blocks_manager12_GLOBAL__N_1L17_fix_blocks_countERKNS1_9item_typeEi
                0x08002f1c       0x7c bn_bg_blocks_manager.o
 .text._ZN3_bn6assert9show_argsIJA32_cA15_cPKtA16_ciA17_ciA34_cN2bn11string_viewEEEEvPKcSC_SC_iDpRKT_
                0x08002f98       0x90 bn_bg_blocks_manager.o
                0x08002f98                _ZN3_bn6assert9show_argsIJA32_cA15_cPKtA16_ciA17_ciA34_cN2bn11string_viewEEEEvPKcSC_SC_iDpRKT_
 .text._ZN3_bn6assert9show_argsIJA30_cA13_cPKtA14_ciA15_ciA17_ciA34_cN2bn11string_viewEEEEvPKcSD_SD_iDpRKT_
                0x08003028       0xa0 bn_bg_blocks_manager.o
                0x08003028                _ZN3_bn6assert9show_argsIJA30_cA13_cPKtA14_ciA15_ciA17_ciA34_cN2bn11string_viewEEEEvPKcSD_SD_iDpRKT_
 .text._ZN3_bn6assert9show_argsIA31_cEEvPKcS4_S4_iRKT_
                0x080030c8       0x48 bn_bg_blocks_manager.o
                0x080030c8                _ZN3_bn6assert9show_argsIA31_cEEvPKcS4_S4_iRKT_
 .text._ZN3_bn6assert9show_argsIJA37_ciA4_ciEEEvPKcS5_S5_iDpRKT_
                0x08003110       0x58 bn_bg_blocks_manager.o
                0x08003110                _ZN3_bn6assert9show_argsIJA37_ciA4_ciEEEvPKcS5_S5_iDpRKT_
 .text._ZNK2bn18regular_bg_map_ptr5tilesEv
                0x08003168       0x48 bn_bg_blocks_manager.o
                0x08003168                _ZNK2bn18regular_bg_map_ptr5tilesEv
 .text._ZNK2bn17affine_bg_map_ptr5tilesEv
                0x080031b0       0x48 bn_bg_blocks_manager.o
                0x080031b0                _ZNK2bn17affine_bg_map_ptr5tilesEv
 .text._ZNK2bn18regular_bg_map_ptr3bppEv
                0x080031f8       0x4c bn_bg_blocks_manager.o
                0x080031f8                _ZNK2bn18regular_bg_map_ptr3bppEv
 .text._ZN2bn17bg_blocks_manager21update_affine_map_rowEiii
                0x08003244      0x15c bn_bg_blocks_manager.o
                0x08003244                _ZN2bn17bg_blocks_manager21update_affine_map_rowEiii
 .text._ZN2bn17bg_blocks_manager28update_affine_map_bottom_rowEiii
                0x080033a0       0x30 bn_bg_blocks_manager.o
                0x080033a0                _ZN2bn17bg_blocks_manager28update_affine_map_bottom_rowEiii
 .text._ZN2bn17bg_blocks_manager23set_affine_map_positionEiii
                0x080033d0      0x1f0 bn_bg_blocks_manager.o
                0x080033d0                _ZN2bn17bg_blocks_manager23set_affine_map_positionEiii
 .text._ZN2bn17bg_blocks_manager21update_affine_map_colEiii
                0x080035c0      0x318 bn_bg_blocks_manager.o
                0x080035c0                _ZN2bn17bg_blocks_manager21update_affine_map_colEiii
 .text._ZN2bn17bg_blocks_manager27update_affine_map_right_colEiii
                0x080038d8       0x30 bn_bg_blocks_manager.o
                0x080038d8                _ZN2bn17bg_blocks_manager27update_affine_map_right_colEiii
 .text._ZN2bn17bg_blocks_manager22update_regular_map_rowEiii
                0x08003908      0x19c bn_bg_blocks_manager.o
                0x08003908                _ZN2bn17bg_blocks_manager22update_regular_map_rowEiii
 .text._ZN2bn17bg_blocks_manager22update_regular_map_colEiii
                0x08003aa4      0x1f0 bn_bg_blocks_manager.o
                0x08003aa4                _ZN2bn17bg_blocks_manager22update_regular_map_colEiii
 .text._ZN2bn17bg_blocks_manager24set_regular_map_positionEiii
                0x08003c94      0x210 bn_bg_blocks_manager.o
                0x08003c94                _ZN2bn17bg_blocks_manager24set_regular_map_positionEiii
 .text._ZN2bn17bg_blocks_manager33set_regular_map_tiles_and_paletteEiONS_20regular_bg_tiles_ptrEONS_14bg_palette_ptrE
                0x08003ea4      0x2b4 bn_bg_blocks_manager.o
                0x08003ea4                _ZN2bn17bg_blocks_manager33set_regular_map_tiles_and_paletteEiONS_20regular_bg_tiles_ptrEONS_14bg_palette_ptrE
 .text._ZN2bn17bg_blocks_manager21set_regular_map_tilesEiONS_20regular_bg_tiles_ptrE
                0x08004158      0x248 bn_bg_blocks_manager.o
                0x08004158                _ZN2bn17bg_blocks_manager21set_regular_map_tilesEiONS_20regular_bg_tiles_ptrE
 .text._ZN2bn17bg_blocks_manager23set_regular_map_paletteEiONS_14bg_palette_ptrE
                0x080043a0      0x210 bn_bg_blocks_manager.o
                0x080043a0                _ZN2bn17bg_blocks_manager23set_regular_map_paletteEiONS_14bg_palette_ptrE
 .text._ZN2bn17bg_blocks_manager12_GLOBAL__N_1L22_find_regular_map_implERKNS_19regular_bg_map_itemEPKtRKNS_20regular_bg_tiles_ptrERKNS_14bg_palette_ptrE
                0x080045b0      0x2d0 bn_bg_blocks_manager.o
 .text._ZN2bn17bg_blocks_manager12_GLOBAL__N_1L12_commit_itemERKNS1_9item_typeEb
                0x08004880      0x1d8 bn_bg_blocks_manager.o
 .text._ZN2bn17bg_blocks_manager19commit_uncompressedEb
                0x08004a58       0x54 bn_bg_blocks_manager.o
                0x08004a58                _ZN2bn17bg_blocks_manager19commit_uncompressedEb
 .text._ZN2bn17bg_blocks_manager17commit_compressedEv
                0x08004aac       0x48 bn_bg_blocks_manager.o
                0x08004aac                _ZN2bn17bg_blocks_manager17commit_compressedEv
 .text._ZN2bn17bg_blocks_manager12_GLOBAL__N_1L12_create_itemEiibONS1_11create_dataE
                0x08004af4      0x4f8 bn_bg_blocks_manager.o
 .text._ZN2bn17bg_blocks_manager12_GLOBAL__N_1L12_create_implEONS1_11create_dataE
                0x08004fec      0x200 bn_bg_blocks_manager.o
 .text._ZN2bn17bg_blocks_manager20create_regular_tilesERKNS_21regular_bg_tiles_itemEb
                0x080051ec      0x140 bn_bg_blocks_manager.o
                0x080051ec                _ZN2bn17bg_blocks_manager20create_regular_tilesERKNS_21regular_bg_tiles_itemEb
 .text._ZN2bn17bg_blocks_manager18create_regular_mapERKNS_19regular_bg_map_itemEPKtONS_20regular_bg_tiles_ptrEONS_14bg_palette_ptrEb
                0x0800532c      0x26c bn_bg_blocks_manager.o
                0x0800532c                _ZN2bn17bg_blocks_manager18create_regular_mapERKNS_19regular_bg_map_itemEPKtONS_20regular_bg_tiles_ptrEONS_14bg_palette_ptrEb
 .text._ZN2bn18regular_bg_map_ptr6createERKNS_15regular_bg_itemEi
                0x08005598       0xd8 bn_bg_blocks_manager.o
                0x08005598                _ZN2bn18regular_bg_map_ptr6createERKNS_15regular_bg_itemEi
 .text._ZN3_bn6assert9show_argsIA39_ciEEvPKcS4_S4_iRKT_RKT0_
                0x08005670       0x54 bn_bg_blocks_manager.o
                0x08005670                _ZN3_bn6assert9show_argsIA39_ciEEvPKcS4_S4_iRKT_RKT0_
 .text._ZN2bn11bgs_manager12_GLOBAL__N_1L29_check_unique_regular_big_mapERNS1_9item_typeE
                0x080056c4       0x6c bn_bgs_manager.o
 .text._ZN2bn11bgs_manager12_GLOBAL__N_1L33_update_item_hw_affine_attributesERKNS1_9item_typeE
                0x08005730       0x48 bn_bgs_manager.o
 .text._ZN2bn11bgs_manager4initEv
                0x08005778       0x98 bn_bgs_manager.o
                0x08005778                _ZN2bn11bgs_manager4initEv
 .text._ZN2bn11bgs_manager5hw_idEPv
                0x08005810        0x8 bn_bgs_manager.o
                0x08005810                _ZN2bn11bgs_manager5hw_idEPv
 .text._ZN2bn11bgs_manager11hw_positionEPv
                0x08005818        0x4 bn_bgs_manager.o
                0x08005818                _ZN2bn11bgs_manager11hw_positionEPv
 .text._ZN2bn11bgs_manager14mat_attributesEPv
                0x0800581c        0x4 bn_bgs_manager.o
                0x0800581c                _ZN2bn11bgs_manager14mat_attributesEPv
 .text._ZN2bn11bgs_manager20update_windows_flagsEPj
                0x08005820       0x7c bn_bgs_manager.o
                0x08005820                _ZN2bn11bgs_manager20update_windows_flagsEPj
 .text._ZN2bn11bgs_manager14update_camerasEv
                0x0800589c      0x138 bn_bgs_manager.o
                0x0800589c                _ZN2bn11bgs_manager14update_camerasEv
 .text._ZN2bn11bgs_manager28update_regular_map_tiles_cbbEii
                0x080059d4       0x94 bn_bgs_manager.o
                0x080059d4                _ZN2bn11bgs_manager28update_regular_map_tiles_cbbEii
 .text._ZN2bn11bgs_manager30update_regular_map_palette_bppEiNS_8bpp_modeE
                0x08005a68       0x98 bn_bgs_manager.o
                0x08005a68                _ZN2bn11bgs_manager30update_regular_map_palette_bppEiNS_8bpp_modeE
 .text._ZN2bn11bgs_manager36fill_hblank_effect_regular_positionsEiPKNS_7fixed_tILi12EEEPt
                0x08005b00       0x38 bn_bgs_manager.o
                0x08005b00                _ZN2bn11bgs_manager36fill_hblank_effect_regular_positionsEiPKNS_7fixed_tILi12EEEPt
 .text._ZN2bn11bgs_manager45fill_hblank_effect_pivot_horizontal_positionsEPvPKNS_7fixed_tILi12EEEPj
                0x08005b38       0x28 bn_bgs_manager.o
                0x08005b38                _ZN2bn11bgs_manager45fill_hblank_effect_pivot_horizontal_positionsEPvPKNS_7fixed_tILi12EEEPj
 .text._ZN2bn11bgs_manager43fill_hblank_effect_pivot_vertical_positionsEPvPKNS_7fixed_tILi12EEEPj
                0x08005b60       0x28 bn_bgs_manager.o
                0x08005b60                _ZN2bn11bgs_manager43fill_hblank_effect_pivot_vertical_positionsEPvPKNS_7fixed_tILi12EEEPj
 .text._ZN2bn11bgs_manager36fill_hblank_effect_bitmap_attributesEPvPKNS_20bitmap_bg_attributesEPt
                0x08005b88       0x50 bn_bgs_manager.o
                0x08005b88                _ZN2bn11bgs_manager36fill_hblank_effect_bitmap_attributesEPvPKNS_20bitmap_bg_attributesEPt
 .text._ZN2bn11bgs_manager6commitEb
                0x08005bd8       0x58 bn_bgs_manager.o
                0x08005bd8                _ZN2bn11bgs_manager6commitEb
 .text._ZN2bn11bgs_manager4stopEv
                0x08005c30       0x28 bn_bgs_manager.o
                0x08005c30                _ZN2bn11bgs_manager4stopEv
 .text._ZN3_bn6assert9show_argsIA17_ciEEvPKcS4_S4_iRKT_RKT0_
                0x08005c58       0x54 bn_bgs_manager.o
                0x08005c58                _ZN3_bn6assert9show_argsIA17_ciEEvPKcS4_S4_iRKT_RKT0_
 .text._ZN3_bn6assert9show_argsIA30_cEEvPKcS4_S4_iRKT_
                0x08005cac       0x48 bn_bgs_manager.o
                0x08005cac                _ZN3_bn6assert9show_argsIA30_cEEvPKcS4_S4_iRKT_
 .text._ZN2bn11bgs_manager15commit_big_mapsEv
                0x08005cf4      0x208 bn_bgs_manager.o
                0x08005cf4                _ZN2bn11bgs_manager15commit_big_mapsEv
 .text._ZN2bn11bgs_manager12_GLOBAL__N_19item_type18update_regular_mapEv
                0x08005efc      0x1b4 bn_bgs_manager.o
 .text._ZN2bn11bgs_manager10affine_mapEPv
                0x080060b0       0x34 bn_bgs_manager.o
                0x080060b0                _ZN2bn11bgs_manager10affine_mapEPv
 .text._ZN2bn11bgs_manager11regular_mapEPv
                0x080060e4       0x34 bn_bgs_manager.o
                0x080060e4                _ZN2bn11bgs_manager11regular_mapEPv
 .text._ZN3_bn6assert9show_argsIA27_cEEvPKcS4_S4_iRKT_
                0x08006118       0x48 bn_bgs_manager.o
                0x08006118                _ZN3_bn6assert9show_argsIA27_cEEvPKcS4_S4_iRKT_
 .text._ZN3_bn6assert9show_argsIA46_cEEvPKcS4_S4_iRKT_
                0x08006160       0x48 bn_bgs_manager.o
                0x08006160                _ZN3_bn6assert9show_argsIA46_cEEvPKcS4_S4_iRKT_
 .text._ZN2bn11bgs_manager36fill_hblank_effect_affine_attributesEPvPKNS_20affine_bg_attributesEPt
                0x080061a8      0x10c bn_bgs_manager.o
                0x080061a8                _ZN2bn11bgs_manager36fill_hblank_effect_affine_attributesEPvPKNS_20affine_bg_attributesEPt
 .text._ZN2bn11bgs_manager37fill_hblank_effect_regular_attributesEPvPKNS_21regular_bg_attributesEPt
